
AVRASM ver. 2.1.30  Z:\OneDrive\TR\CV_data_use_me\TRproducts\SCLmega328-260101\Debug\List\SCL-260101.asm Sat Jan 10 14:53:51 2026

                 
                 
                 ;CodeVisionAVR C Compiler V3.51 Standard
                 ;(C) Copyright 1998-2023 Pavel Haiduc, HP InfoTech S.R.L.
                 ;http://www.hpinfotech.ro
                 
                 ;Build configuration    : Debug
                 ;Chip type              : ATmega328
                 ;Program type           : Application
                 ;Clock frequency        : 16.000000 MHz
                 ;Memory model           : Small
                 ;Optimize for           : Size
                 ;(s)printf features     : long, width, precision
                 ;(s)scanf features      : int, width
                 ;External RAM size      : 0
                 ;Data Stack size        : 512 byte(s)
                 ;Heap size              : 0 byte(s)
                 ;Promote 'char' to 'int': Yes
                 ;'char' is unsigned     : Yes
                 ;8 bit enums            : Yes
                 ;Global 'const' stored in FLASH: Yes
                 ;Enhanced function parameter passing: Mode 2
                 ;Enhanced core instructions: On
                 ;Automatic register allocation for global variables: On
                 ;Smart register allocation: On
                 
                 	#define _MODEL_SMALL_
                 
                 	#pragma AVRPART ADMIN PART_NAME ATmega328
                 	#pragma AVRPART MEMORY PROG_FLASH 32768
                 	#pragma AVRPART MEMORY EEPROM 1024
                 	#pragma AVRPART MEMORY INT_SRAM SIZE 2048
                 	#pragma AVRPART MEMORY INT_SRAM START_ADDR 0x100
                 
                 	#define CALL_SUPPORTED 1
                 
                 	.LISTMAC
                 	.EQU EERE=0x0
                 	.EQU EEWE=0x1
                 	.EQU EEMWE=0x2
                 	.EQU UDRE=0x5
                 	.EQU RXC=0x7
                 	.EQU EECR=0x1F
                 	.EQU EEDR=0x20
                 	.EQU EEARL=0x21
                 	.EQU EEARH=0x22
                 	.EQU SPSR=0x2D
                 	.EQU SPDR=0x2E
                 	.EQU SMCR=0x33
                 	.EQU MCUSR=0x34
                 	.EQU MCUCR=0x35
                 	.EQU WDTCSR=0x60
                 	.EQU UCSR0A=0xC0
                 	.EQU UDR0=0xC6
                 	.EQU SPMCSR=0x37
                 	.EQU SPL=0x3D
                 	.EQU SPH=0x3E
                 	.EQU SREG=0x3F
                 	.EQU GPIOR0=0x1E
                 
                 	.DEF R0X0=R0
                 	.DEF R0X1=R1
                 	.DEF R0X2=R2
                 	.DEF R0X3=R3
                 	.DEF R0X4=R4
                 	.DEF R0X5=R5
                 	.DEF R0X6=R6
                 	.DEF R0X7=R7
                 	.DEF R0X8=R8
                 	.DEF R0X9=R9
                 	.DEF R0XA=R10
                 	.DEF R0XB=R11
                 	.DEF R0XC=R12
                 	.DEF R0XD=R13
                 	.DEF R0XE=R14
                 	.DEF R0XF=R15
                 	.DEF R0X10=R16
                 	.DEF R0X11=R17
                 	.DEF R0X12=R18
                 	.DEF R0X13=R19
                 	.DEF R0X14=R20
                 	.DEF R0X15=R21
                 	.DEF R0X16=R22
                 	.DEF R0X17=R23
                 	.DEF R0X18=R24
                 	.DEF R0X19=R25
                 	.DEF R0X1A=R26
                 	.DEF R0X1B=R27
                 	.DEF R0X1C=R28
                 	.DEF R0X1D=R29
                 	.DEF R0X1E=R30
                 	.DEF R0X1F=R31
                 
                 	.EQU __SRAM_START=0x0100
                 	.EQU __SRAM_END=0x08FF
                 	.EQU __DSTACK_SIZE=0x0200
                 	.EQU __HEAP_SIZE=0x0000
                 	.EQU __CLEAR_SRAM_SIZE=__SRAM_END-__SRAM_START+1
                 
                 	.EQU __FLASH_PAGE_SIZE=0x40
                 	.EQU __EEPROM_PAGE_SIZE=0x04
                 
                 	.MACRO __CPD1N
                 	CPI  R30,LOW(@0)
                 	LDI  R26,HIGH(@0)
                 	CPC  R31,R26
                 	LDI  R26,BYTE3(@0)
                 	CPC  R22,R26
                 	LDI  R26,BYTE4(@0)
                 	CPC  R23,R26
                 	.ENDM
                 
                 	.MACRO __CPD2N
                 	CPI  R26,LOW(@0)
                 	LDI  R30,HIGH(@0)
                 	CPC  R27,R30
                 	LDI  R30,BYTE3(@0)
                 	CPC  R24,R30
                 	LDI  R30,BYTE4(@0)
                 	CPC  R25,R30
                 	.ENDM
                 
                 	.MACRO __CPWRR
                 	CP   R@0,R@2
                 	CPC  R@1,R@3
                 	.ENDM
                 
                 	.MACRO __CPWRN
                 	CPI  R@0,LOW(@2)
                 	LDI  R30,HIGH(@2)
                 	CPC  R@1,R30
                 	.ENDM
                 
                 	.MACRO __ADDB1MN
                 	SUBI R30,LOW(-@0-(@1))
                 	.ENDM
                 
                 	.MACRO __ADDB2MN
                 	SUBI R26,LOW(-@0-(@1))
                 	.ENDM
                 
                 	.MACRO __ADDW1MN
                 	SUBI R30,LOW(-@0-(@1))
                 	SBCI R31,HIGH(-@0-(@1))
                 	.ENDM
                 
                 	.MACRO __ADDW2MN
                 	SUBI R26,LOW(-@0-(@1))
                 	SBCI R27,HIGH(-@0-(@1))
                 	.ENDM
                 
                 	.MACRO __ADDW1FN
                 	SUBI R30,LOW(-2*@0-(@1))
                 	SBCI R31,HIGH(-2*@0-(@1))
                 	.ENDM
                 
                 	.MACRO __ADDD1FN
                 	SUBI R30,LOW(-2*@0-(@1))
                 	SBCI R31,HIGH(-2*@0-(@1))
                 	SBCI R22,BYTE3(-2*@0-(@1))
                 	.ENDM
                 
                 	.MACRO __ADDD1N
                 	SUBI R30,LOW(-@0)
                 	SBCI R31,HIGH(-@0)
                 	SBCI R22,BYTE3(-@0)
                 	SBCI R23,BYTE4(-@0)
                 	.ENDM
                 
                 	.MACRO __ADDD2N
                 	SUBI R26,LOW(-@0)
                 	SBCI R27,HIGH(-@0)
                 	SBCI R24,BYTE3(-@0)
                 	SBCI R25,BYTE4(-@0)
                 	.ENDM
                 
                 	.MACRO __SUBD1N
                 	SUBI R30,LOW(@0)
                 	SBCI R31,HIGH(@0)
                 	SBCI R22,BYTE3(@0)
                 	SBCI R23,BYTE4(@0)
                 	.ENDM
                 
                 	.MACRO __SUBD2N
                 	SUBI R26,LOW(@0)
                 	SBCI R27,HIGH(@0)
                 	SBCI R24,BYTE3(@0)
                 	SBCI R25,BYTE4(@0)
                 	.ENDM
                 
                 	.MACRO __ANDBMNN
                 	LDS  R30,@0+(@1)
                 	ANDI R30,LOW(@2)
                 	STS  @0+(@1),R30
                 	.ENDM
                 
                 	.MACRO __ANDWMNN
                 	LDS  R30,@0+(@1)
                 	ANDI R30,LOW(@2)
                 	STS  @0+(@1),R30
                 	LDS  R30,@0+(@1)+1
                 	ANDI R30,HIGH(@2)
                 	STS  @0+(@1)+1,R30
                 	.ENDM
                 
                 	.MACRO __ANDD1N
                 	ANDI R30,LOW(@0)
                 	ANDI R31,HIGH(@0)
                 	ANDI R22,BYTE3(@0)
                 	ANDI R23,BYTE4(@0)
                 	.ENDM
                 
                 	.MACRO __ANDD2N
                 	ANDI R26,LOW(@0)
                 	ANDI R27,HIGH(@0)
                 	ANDI R24,BYTE3(@0)
                 	ANDI R25,BYTE4(@0)
                 	.ENDM
                 
                 	.MACRO __ORBMNN
                 	LDS  R30,@0+(@1)
                 	ORI  R30,LOW(@2)
                 	STS  @0+(@1),R30
                 	.ENDM
                 
                 	.MACRO __ORWMNN
                 	LDS  R30,@0+(@1)
                 	ORI  R30,LOW(@2)
                 	STS  @0+(@1),R30
                 	LDS  R30,@0+(@1)+1
                 	ORI  R30,HIGH(@2)
                 	STS  @0+(@1)+1,R30
                 	.ENDM
                 
                 	.MACRO __ORD1N
                 	ORI  R30,LOW(@0)
                 	ORI  R31,HIGH(@0)
                 	ORI  R22,BYTE3(@0)
                 	ORI  R23,BYTE4(@0)
                 	.ENDM
                 
                 	.MACRO __ORD2N
                 	ORI  R26,LOW(@0)
                 	ORI  R27,HIGH(@0)
                 	ORI  R24,BYTE3(@0)
                 	ORI  R25,BYTE4(@0)
                 	.ENDM
                 
                 	.MACRO __DELAY_USB
                 	LDI  R24,LOW(@0)
                 __DELAY_USB_LOOP:
                 	DEC  R24
                 	BRNE __DELAY_USB_LOOP
                 	.ENDM
                 
                 	.MACRO __DELAY_USW
                 	LDI  R24,LOW(@0)
                 	LDI  R25,HIGH(@0)
                 __DELAY_USW_LOOP:
                 	SBIW R24,1
                 	BRNE __DELAY_USW_LOOP
                 	.ENDM
                 
                 	.MACRO __GETW1P
                 	LD   R30,X+
                 	LD   R31,X
                 	SBIW R26,1
                 	.ENDM
                 
                 	.MACRO __GETD1S
                 	LDD  R30,Y+@0
                 	LDD  R31,Y+@0+1
                 	LDD  R22,Y+@0+2
                 	LDD  R23,Y+@0+3
                 	.ENDM
                 
                 	.MACRO __GETD2S
                 	LDD  R26,Y+@0
                 	LDD  R27,Y+@0+1
                 	LDD  R24,Y+@0+2
                 	LDD  R25,Y+@0+3
                 	.ENDM
                 
                 	.MACRO __GETD1P_INC
                 	LD   R30,X+
                 	LD   R31,X+
                 	LD   R22,X+
                 	LD   R23,X+
                 	.ENDM
                 
                 	.MACRO __GETD1P_DEC
                 	LD   R23,-X
                 	LD   R22,-X
                 	LD   R31,-X
                 	LD   R30,-X
                 	.ENDM
                 
                 	.MACRO __PUTDP1
                 	ST   X+,R30
                 	ST   X+,R31
                 	ST   X+,R22
                 	ST   X,R23
                 	.ENDM
                 
                 	.MACRO __PUTDP1_DEC
                 	ST   -X,R23
                 	ST   -X,R22
                 	ST   -X,R31
                 	ST   -X,R30
                 	.ENDM
                 
                 	.MACRO __PUTD1S
                 	STD  Y+@0,R30
                 	STD  Y+@0+1,R31
                 	STD  Y+@0+2,R22
                 	STD  Y+@0+3,R23
                 	.ENDM
                 
                 	.MACRO __PUTD2S
                 	STD  Y+@0,R26
                 	STD  Y+@0+1,R27
                 	STD  Y+@0+2,R24
                 	STD  Y+@0+3,R25
                 	.ENDM
                 
                 	.MACRO __PUTDZ2
                 	STD  Z+@0,R26
                 	STD  Z+@0+1,R27
                 	STD  Z+@0+2,R24
                 	STD  Z+@0+3,R25
                 	.ENDM
                 
                 	.MACRO __CLRD1S
                 	STD  Y+@0,R30
                 	STD  Y+@0+1,R30
                 	STD  Y+@0+2,R30
                 	STD  Y+@0+3,R30
                 	.ENDM
                 
                 	.MACRO __CPD10
                 	SBIW R30,0
                 	SBCI R22,0
                 	SBCI R23,0
                 	.ENDM
                 
                 	.MACRO __CPD20
                 	SBIW R26,0
                 	SBCI R24,0
                 	SBCI R25,0
                 	.ENDM
                 
                 	.MACRO __ADDD12
                 	ADD  R30,R26
                 	ADC  R31,R27
                 	ADC  R22,R24
                 	ADC  R23,R25
                 	.ENDM
                 
                 	.MACRO __ADDD21
                 	ADD  R26,R30
                 	ADC  R27,R31
                 	ADC  R24,R22
                 	ADC  R25,R23
                 	.ENDM
                 
                 	.MACRO __SUBD12
                 	SUB  R30,R26
                 	SBC  R31,R27
                 	SBC  R22,R24
                 	SBC  R23,R25
                 	.ENDM
                 
                 	.MACRO __SUBD21
                 	SUB  R26,R30
                 	SBC  R27,R31
                 	SBC  R24,R22
                 	SBC  R25,R23
                 	.ENDM
                 
                 	.MACRO __ANDD12
                 	AND  R30,R26
                 	AND  R31,R27
                 	AND  R22,R24
                 	AND  R23,R25
                 	.ENDM
                 
                 	.MACRO __ORD12
                 	OR   R30,R26
                 	OR   R31,R27
                 	OR   R22,R24
                 	OR   R23,R25
                 	.ENDM
                 
                 	.MACRO __XORD12
                 	EOR  R30,R26
                 	EOR  R31,R27
                 	EOR  R22,R24
                 	EOR  R23,R25
                 	.ENDM
                 
                 	.MACRO __XORD21
                 	EOR  R26,R30
                 	EOR  R27,R31
                 	EOR  R24,R22
                 	EOR  R25,R23
                 	.ENDM
                 
                 	.MACRO __COMD1
                 	COM  R30
                 	COM  R31
                 	COM  R22
                 	COM  R23
                 	.ENDM
                 
                 	.MACRO __MULD2_2
                 	LSL  R26
                 	ROL  R27
                 	ROL  R24
                 	ROL  R25
                 	.ENDM
                 
                 	.MACRO __LSRD1
                 	LSR  R23
                 	ROR  R22
                 	ROR  R31
                 	ROR  R30
                 	.ENDM
                 
                 	.MACRO __LSLD1
                 	LSL  R30
                 	ROL  R31
                 	ROL  R22
                 	ROL  R23
                 	.ENDM
                 
                 	.MACRO __ASRB4
                 	ASR  R30
                 	ASR  R30
                 	ASR  R30
                 	ASR  R30
                 	.ENDM
                 
                 	.MACRO __ASRW8
                 	MOV  R30,R31
                 	CLR  R31
                 	SBRC R30,7
                 	SER  R31
                 	.ENDM
                 
                 	.MACRO __LSRD16
                 	MOV  R30,R22
                 	MOV  R31,R23
                 	LDI  R22,0
                 	LDI  R23,0
                 	.ENDM
                 
                 	.MACRO __LSLD16
                 	MOV  R22,R30
                 	MOV  R23,R31
                 	LDI  R30,0
                 	LDI  R31,0
                 	.ENDM
                 
                 	.MACRO __CWD1
                 	MOV  R22,R31
                 	ADD  R22,R22
                 	SBC  R22,R22
                 	MOV  R23,R22
                 	.ENDM
                 
                 	.MACRO __CWD2
                 	MOV  R24,R27
                 	ADD  R24,R24
                 	SBC  R24,R24
                 	MOV  R25,R24
                 	.ENDM
                 
                 	.MACRO __SETMSD1
                 	SER  R31
                 	SER  R22
                 	SER  R23
                 	.ENDM
                 
                 	.MACRO __ADDW1R15
                 	CLR  R0
                 	ADD  R30,R15
                 	ADC  R31,R0
                 	.ENDM
                 
                 	.MACRO __ADDW2R15
                 	CLR  R0
                 	ADD  R26,R15
                 	ADC  R27,R0
                 	.ENDM
                 
                 	.MACRO __EQB12
                 	CP   R30,R26
                 	LDI  R30,1
                 	BREQ PC+2
                 	CLR  R30
                 	.ENDM
                 
                 	.MACRO __NEB12
                 	CP   R30,R26
                 	LDI  R30,1
                 	BRNE PC+2
                 	CLR  R30
                 	.ENDM
                 
                 	.MACRO __LEB12
                 	CP   R30,R26
                 	LDI  R30,1
                 	BRGE PC+2
                 	CLR  R30
                 	.ENDM
                 
                 	.MACRO __GEB12
                 	CP   R26,R30
                 	LDI  R30,1
                 	BRGE PC+2
                 	CLR  R30
                 	.ENDM
                 
                 	.MACRO __LTB12
                 	CP   R26,R30
                 	LDI  R30,1
                 	BRLT PC+2
                 	CLR  R30
                 	.ENDM
                 
                 	.MACRO __GTB12
                 	CP   R30,R26
                 	LDI  R30,1
                 	BRLT PC+2
                 	CLR  R30
                 	.ENDM
                 
                 	.MACRO __LEB12U
                 	CP   R30,R26
                 	LDI  R30,1
                 	BRSH PC+2
                 	CLR  R30
                 	.ENDM
                 
                 	.MACRO __GEB12U
                 	CP   R26,R30
                 	LDI  R30,1
                 	BRSH PC+2
                 	CLR  R30
                 	.ENDM
                 
                 	.MACRO __LTB12U
                 	CP   R26,R30
                 	LDI  R30,1
                 	BRLO PC+2
                 	CLR  R30
                 	.ENDM
                 
                 	.MACRO __GTB12U
                 	CP   R30,R26
                 	LDI  R30,1
                 	BRLO PC+2
                 	CLR  R30
                 	.ENDM
                 
                 	.MACRO __CPW01
                 	CLR  R0
                 	CP   R0,R30
                 	CPC  R0,R31
                 	.ENDM
                 
                 	.MACRO __CPW02
                 	CLR  R0
                 	CP   R0,R26
                 	CPC  R0,R27
                 	.ENDM
                 
                 	.MACRO __CPD12
                 	CP   R30,R26
                 	CPC  R31,R27
                 	CPC  R22,R24
                 	CPC  R23,R25
                 	.ENDM
                 
                 	.MACRO __CPD21
                 	CP   R26,R30
                 	CPC  R27,R31
                 	CPC  R24,R22
                 	CPC  R25,R23
                 	.ENDM
                 
                 	.MACRO __BSTB1
                 	CLT
                 	TST  R30
                 	BREQ PC+2
                 	SET
                 	.ENDM
                 
                 	.MACRO __LNEGB1
                 	TST  R30
                 	LDI  R30,1
                 	BREQ PC+2
                 	CLR  R30
                 	.ENDM
                 
                 	.MACRO __LNEGW1
                 	OR   R30,R31
                 	LDI  R30,1
                 	BREQ PC+2
                 	LDI  R30,0
                 	.ENDM
                 
                 	.MACRO __POINTB1MN
                 	LDI  R30,LOW(@0+(@1))
                 	.ENDM
                 
                 	.MACRO __POINTW1MN
                 	LDI  R30,LOW(@0+(@1))
                 	LDI  R31,HIGH(@0+(@1))
                 	.ENDM
                 
                 	.MACRO __POINTD1M
                 	LDI  R30,LOW(@0)
                 	LDI  R31,HIGH(@0)
                 	LDI  R22,BYTE3(@0)
                 	LDI  R23,BYTE4(@0)
                 	.ENDM
                 
                 	.MACRO __POINTW1FN
                 	LDI  R30,LOW(2*@0+(@1))
                 	LDI  R31,HIGH(2*@0+(@1))
                 	.ENDM
                 
                 	.MACRO __POINTD1FN
                 	LDI  R30,LOW(2*@0+(@1))
                 	LDI  R31,HIGH(2*@0+(@1))
                 	LDI  R22,BYTE3(2*@0+(@1))
                 	LDI  R23,BYTE4(2*@0+(@1))
                 	.ENDM
                 
                 	.MACRO __POINTB2MN
                 	LDI  R26,LOW(@0+(@1))
                 	.ENDM
                 
                 	.MACRO __POINTW2MN
                 	LDI  R26,LOW(@0+(@1))
                 	LDI  R27,HIGH(@0+(@1))
                 	.ENDM
                 
                 	.MACRO __POINTD2M
                 	LDI  R26,LOW(@0)
                 	LDI  R27,HIGH(@0)
                 	LDI  R24,BYTE3(@0)
                 	LDI  R25,BYTE4(@0)
                 	.ENDM
                 
                 	.MACRO __POINTW2FN
                 	LDI  R26,LOW(2*@0+(@1))
                 	LDI  R27,HIGH(2*@0+(@1))
                 	.ENDM
                 
                 	.MACRO __POINTD2FN
                 	LDI  R26,LOW(2*@0+(@1))
                 	LDI  R27,HIGH(2*@0+(@1))
                 	LDI  R24,BYTE3(2*@0+(@1))
                 	LDI  R25,BYTE4(2*@0+(@1))
                 	.ENDM
                 
                 	.MACRO __POINTBRM
                 	LDI  R@0,LOW(@1)
                 	.ENDM
                 
                 	.MACRO __POINTWRM
                 	LDI  R@0,LOW(@2)
                 	LDI  R@1,HIGH(@2)
                 	.ENDM
                 
                 	.MACRO __POINTBRMN
                 	LDI  R@0,LOW(@1+(@2))
                 	.ENDM
                 
                 	.MACRO __POINTWRMN
                 	LDI  R@0,LOW(@2+(@3))
                 	LDI  R@1,HIGH(@2+(@3))
                 	.ENDM
                 
                 	.MACRO __POINTWRFN
                 	LDI  R@0,LOW(@2*2+(@3))
                 	LDI  R@1,HIGH(@2*2+(@3))
                 	.ENDM
                 
                 	.MACRO __GETD1N
                 	LDI  R30,LOW(@0)
                 	LDI  R31,HIGH(@0)
                 	LDI  R22,BYTE3(@0)
                 	LDI  R23,BYTE4(@0)
                 	.ENDM
                 
                 	.MACRO __GETD2N
                 	LDI  R26,LOW(@0)
                 	LDI  R27,HIGH(@0)
                 	LDI  R24,BYTE3(@0)
                 	LDI  R25,BYTE4(@0)
                 	.ENDM
                 
                 	.MACRO __GETB1MN
                 	LDS  R30,@0+(@1)
                 	.ENDM
                 
                 	.MACRO __GETB1HMN
                 	LDS  R31,@0+(@1)
                 	.ENDM
                 
                 	.MACRO __GETW1MN
                 	LDS  R30,@0+(@1)
                 	LDS  R31,@0+(@1)+1
                 	.ENDM
                 
                 	.MACRO __GETD1MN
                 	LDS  R30,@0+(@1)
                 	LDS  R31,@0+(@1)+1
                 	LDS  R22,@0+(@1)+2
                 	LDS  R23,@0+(@1)+3
                 	.ENDM
                 
                 	.MACRO __GETBRMN
                 	LDS  R@0,@1+(@2)
                 	.ENDM
                 
                 	.MACRO __GETWRMN
                 	LDS  R@0,@2+(@3)
                 	LDS  R@1,@2+(@3)+1
                 	.ENDM
                 
                 	.MACRO __GETWRZ
                 	LDD  R@0,Z+@2
                 	LDD  R@1,Z+@2+1
                 	.ENDM
                 
                 	.MACRO __GETD2Z
                 	LDD  R26,Z+@0
                 	LDD  R27,Z+@0+1
                 	LDD  R24,Z+@0+2
                 	LDD  R25,Z+@0+3
                 	.ENDM
                 
                 	.MACRO __GETB2MN
                 	LDS  R26,@0+(@1)
                 	.ENDM
                 
                 	.MACRO __GETW2MN
                 	LDS  R26,@0+(@1)
                 	LDS  R27,@0+(@1)+1
                 	.ENDM
                 
                 	.MACRO __GETD2MN
                 	LDS  R26,@0+(@1)
                 	LDS  R27,@0+(@1)+1
                 	LDS  R24,@0+(@1)+2
                 	LDS  R25,@0+(@1)+3
                 	.ENDM
                 
                 	.MACRO __PUTB1MN
                 	STS  @0+(@1),R30
                 	.ENDM
                 
                 	.MACRO __PUTW1MN
                 	STS  @0+(@1),R30
                 	STS  @0+(@1)+1,R31
                 	.ENDM
                 
                 	.MACRO __PUTD1MN
                 	STS  @0+(@1),R30
                 	STS  @0+(@1)+1,R31
                 	STS  @0+(@1)+2,R22
                 	STS  @0+(@1)+3,R23
                 	.ENDM
                 
                 	.MACRO __PUTB1EN
                 	LDI  R26,LOW(@0+(@1))
                 	LDI  R27,HIGH(@0+(@1))
                 	CALL __EEPROMWRB
                 	.ENDM
                 
                 	.MACRO __PUTW1EN
                 	LDI  R26,LOW(@0+(@1))
                 	LDI  R27,HIGH(@0+(@1))
                 	CALL __EEPROMWRW
                 	.ENDM
                 
                 	.MACRO __PUTD1EN
                 	LDI  R26,LOW(@0+(@1))
                 	LDI  R27,HIGH(@0+(@1))
                 	CALL __EEPROMWRD
                 	.ENDM
                 
                 	.MACRO __PUTBR0MN
                 	STS  @0+(@1),R0
                 	.ENDM
                 
                 	.MACRO __PUTBMRN
                 	STS  @0+(@1),R@2
                 	.ENDM
                 
                 	.MACRO __PUTWMRN
                 	STS  @0+(@1),R@2
                 	STS  @0+(@1)+1,R@3
                 	.ENDM
                 
                 	.MACRO __PUTBZR
                 	STD  Z+@1,R@0
                 	.ENDM
                 
                 	.MACRO __PUTWZR
                 	STD  Z+@2,R@0
                 	STD  Z+@2+1,R@1
                 	.ENDM
                 
                 	.MACRO __GETW1R
                 	MOV  R30,R@0
                 	MOV  R31,R@1
                 	.ENDM
                 
                 	.MACRO __GETW2R
                 	MOV  R26,R@0
                 	MOV  R27,R@1
                 	.ENDM
                 
                 	.MACRO __GETWRN
                 	LDI  R@0,LOW(@2)
                 	LDI  R@1,HIGH(@2)
                 	.ENDM
                 
                 	.MACRO __PUTW1R
                 	MOV  R@0,R30
                 	MOV  R@1,R31
                 	.ENDM
                 
                 	.MACRO __PUTW2R
                 	MOV  R@0,R26
                 	MOV  R@1,R27
                 	.ENDM
                 
                 	.MACRO __ADDWRN
                 	SUBI R@0,LOW(-@2)
                 	SBCI R@1,HIGH(-@2)
                 	.ENDM
                 
                 	.MACRO __ADDWRR
                 	ADD  R@0,R@2
                 	ADC  R@1,R@3
                 	.ENDM
                 
                 	.MACRO __SUBWRN
                 	SUBI R@0,LOW(@2)
                 	SBCI R@1,HIGH(@2)
                 	.ENDM
                 
                 	.MACRO __SUBWRR
                 	SUB  R@0,R@2
                 	SBC  R@1,R@3
                 	.ENDM
                 
                 	.MACRO __ANDWRN
                 	ANDI R@0,LOW(@2)
                 	ANDI R@1,HIGH(@2)
                 	.ENDM
                 
                 	.MACRO __ANDWRR
                 	AND  R@0,R@2
                 	AND  R@1,R@3
                 	.ENDM
                 
                 	.MACRO __ORWRN
                 	ORI  R@0,LOW(@2)
                 	ORI  R@1,HIGH(@2)
                 	.ENDM
                 
                 	.MACRO __ORWRR
                 	OR   R@0,R@2
                 	OR   R@1,R@3
                 	.ENDM
                 
                 	.MACRO __EORWRR
                 	EOR  R@0,R@2
                 	EOR  R@1,R@3
                 	.ENDM
                 
                 	.MACRO __GETWRS
                 	LDD  R@0,Y+@2
                 	LDD  R@1,Y+@2+1
                 	.ENDM
                 
                 	.MACRO __PUTBSR
                 	STD  Y+@1,R@0
                 	.ENDM
                 
                 	.MACRO __PUTWSR
                 	STD  Y+@2,R@0
                 	STD  Y+@2+1,R@1
                 	.ENDM
                 
                 	.MACRO __MOVEWRR
                 	MOV  R@0,R@2
                 	MOV  R@1,R@3
                 	.ENDM
                 
                 	.MACRO __INWR
                 	IN   R@0,@2
                 	IN   R@1,@2+1
                 	.ENDM
                 
                 	.MACRO __OUTWR
                 	OUT  @2+1,R@1
                 	OUT  @2,R@0
                 	.ENDM
                 
                 	.MACRO __CALL1MN
                 	LDS  R30,@0+(@1)
                 	LDS  R31,@0+(@1)+1
                 	ICALL
                 	.ENDM
                 
                 	.MACRO __CALL1FN
                 	LDI  R30,LOW(2*@0+(@1))
                 	LDI  R31,HIGH(2*@0+(@1))
                 	CALL __GETW1PF
                 	ICALL
                 	.ENDM
                 
                 	.MACRO __CALL2EN
                 	PUSH R26
                 	PUSH R27
                 	LDI  R26,LOW(@0+(@1))
                 	LDI  R27,HIGH(@0+(@1))
                 	CALL __EEPROMRDW
                 	POP  R27
                 	POP  R26
                 	ICALL
                 	.ENDM
                 
                 	.MACRO __CALL2EX
                 	SUBI R26,LOW(-@0)
                 	SBCI R27,HIGH(-@0)
                 	CALL __EEPROMRDD
                 	ICALL
                 	.ENDM
                 
                 	.MACRO __GETW1STACK
                 	IN   R30,SPL
                 	IN   R31,SPH
                 	ADIW R30,@0+1
                 	LD   R0,Z+
                 	LD   R31,Z
                 	MOV  R30,R0
                 	.ENDM
                 
                 	.MACRO __GETD1STACK
                 	IN   R30,SPL
                 	IN   R31,SPH
                 	ADIW R30,@0+1
                 	LD   R0,Z+
                 	LD   R1,Z+
                 	LD   R22,Z
                 	MOVW R30,R0
                 	.ENDM
                 
                 	.MACRO __NBST
                 	BST  R@0,@1
                 	IN   R30,SREG
                 	LDI  R31,0x40
                 	EOR  R30,R31
                 	OUT  SREG,R30
                 	.ENDM
                 
                 
                 	.MACRO __PUTB1SN
                 	LDD  R26,Y+@0
                 	LDD  R27,Y+@0+1
                 	SUBI R26,LOW(-@1)
                 	SBCI R27,HIGH(-@1)
                 	ST   X,R30
                 	.ENDM
                 
                 	.MACRO __PUTW1SN
                 	LDD  R26,Y+@0
                 	LDD  R27,Y+@0+1
                 	SUBI R26,LOW(-@1)
                 	SBCI R27,HIGH(-@1)
                 	ST   X+,R30
                 	ST   X,R31
                 	.ENDM
                 
                 	.MACRO __PUTD1SN
                 	LDD  R26,Y+@0
                 	LDD  R27,Y+@0+1
                 	SUBI R26,LOW(-@1)
                 	SBCI R27,HIGH(-@1)
                 	ST   X+,R30
                 	ST   X+,R31
                 	ST   X+,R22
                 	ST   X,R23
                 	.ENDM
                 
                 	.MACRO __PUTB1SNS
                 	LDD  R26,Y+@0
                 	LDD  R27,Y+@0+1
                 	ADIW R26,@1
                 	ST   X,R30
                 	.ENDM
                 
                 	.MACRO __PUTW1SNS
                 	LDD  R26,Y+@0
                 	LDD  R27,Y+@0+1
                 	ADIW R26,@1
                 	ST   X+,R30
                 	ST   X,R31
                 	.ENDM
                 
                 	.MACRO __PUTD1SNS
                 	LDD  R26,Y+@0
                 	LDD  R27,Y+@0+1
                 	ADIW R26,@1
                 	ST   X+,R30
                 	ST   X+,R31
                 	ST   X+,R22
                 	ST   X,R23
                 	.ENDM
                 
                 	.MACRO __PUTB1PMN
                 	LDS  R26,@0
                 	LDS  R27,@0+1
                 	SUBI R26,LOW(-@1)
                 	SBCI R27,HIGH(-@1)
                 	ST   X,R30
                 	.ENDM
                 
                 	.MACRO __PUTW1PMN
                 	LDS  R26,@0
                 	LDS  R27,@0+1
                 	SUBI R26,LOW(-@1)
                 	SBCI R27,HIGH(-@1)
                 	ST   X+,R30
                 	ST   X,R31
                 	.ENDM
                 
                 	.MACRO __PUTD1PMN
                 	LDS  R26,@0
                 	LDS  R27,@0+1
                 	SUBI R26,LOW(-@1)
                 	SBCI R27,HIGH(-@1)
                 	ST   X+,R30
                 	ST   X+,R31
                 	ST   X+,R22
                 	ST   X,R23
                 	.ENDM
                 
                 	.MACRO __PUTB1PMNS
                 	LDS  R26,@0
                 	LDS  R27,@0+1
                 	ADIW R26,@1
                 	ST   X,R30
                 	.ENDM
                 
                 	.MACRO __PUTW1PMNS
                 	LDS  R26,@0
                 	LDS  R27,@0+1
                 	ADIW R26,@1
                 	ST   X+,R30
                 	ST   X,R31
                 	.ENDM
                 
                 	.MACRO __PUTD1PMNS
                 	LDS  R26,@0
                 	LDS  R27,@0+1
                 	ADIW R26,@1
                 	ST   X+,R30
                 	ST   X+,R31
                 	ST   X+,R22
                 	ST   X,R23
                 	.ENDM
                 
                 	.MACRO __PUTB1RN
                 	MOVW R26,R@0
                 	SUBI R26,LOW(-@1)
                 	SBCI R27,HIGH(-@1)
                 	ST   X,R30
                 	.ENDM
                 
                 	.MACRO __PUTW1RN
                 	MOVW R26,R@0
                 	SUBI R26,LOW(-@1)
                 	SBCI R27,HIGH(-@1)
                 	ST   X+,R30
                 	ST   X,R31
                 	.ENDM
                 
                 	.MACRO __PUTD1RN
                 	MOVW R26,R@0
                 	SUBI R26,LOW(-@1)
                 	SBCI R27,HIGH(-@1)
                 	ST   X+,R30
                 	ST   X+,R31
                 	ST   X+,R22
                 	ST   X,R23
                 	.ENDM
                 
                 	.MACRO __PUTB1RNS
                 	MOVW R26,R@0
                 	ADIW R26,@1
                 	ST   X,R30
                 	.ENDM
                 
                 	.MACRO __PUTW1RNS
                 	MOVW R26,R@0
                 	ADIW R26,@1
                 	ST   X+,R30
                 	ST   X,R31
                 	.ENDM
                 
                 	.MACRO __PUTD1RNS
                 	MOVW R26,R@0
                 	ADIW R26,@1
                 	ST   X+,R30
                 	ST   X+,R31
                 	ST   X+,R22
                 	ST   X,R23
                 	.ENDM
                 
                 	.MACRO __PUTB1RON
                 	MOV  R26,R@0
                 	MOV  R27,R@1
                 	SUBI R26,LOW(-@2)
                 	SBCI R27,HIGH(-@2)
                 	ST   X,R30
                 	.ENDM
                 
                 	.MACRO __PUTW1RON
                 	MOV  R26,R@0
                 	MOV  R27,R@1
                 	SUBI R26,LOW(-@2)
                 	SBCI R27,HIGH(-@2)
                 	ST   X+,R30
                 	ST   X,R31
                 	.ENDM
                 
                 	.MACRO __PUTD1RON
                 	MOV  R26,R@0
                 	MOV  R27,R@1
                 	SUBI R26,LOW(-@2)
                 	SBCI R27,HIGH(-@2)
                 	ST   X+,R30
                 	ST   X+,R31
                 	ST   X+,R22
                 	ST   X,R23
                 	.ENDM
                 
                 	.MACRO __PUTB1RONS
                 	MOV  R26,R@0
                 	MOV  R27,R@1
                 	ADIW R26,@2
                 	ST   X,R30
                 	.ENDM
                 
                 	.MACRO __PUTW1RONS
                 	MOV  R26,R@0
                 	MOV  R27,R@1
                 	ADIW R26,@2
                 	ST   X+,R30
                 	ST   X,R31
                 	.ENDM
                 
                 	.MACRO __PUTD1RONS
                 	MOV  R26,R@0
                 	MOV  R27,R@1
                 	ADIW R26,@2
                 	ST   X+,R30
                 	ST   X+,R31
                 	ST   X+,R22
                 	ST   X,R23
                 	.ENDM
                 
                 
                 	.MACRO __GETB1SX
                 	MOVW R30,R28
                 	SUBI R30,LOW(-@0)
                 	SBCI R31,HIGH(-@0)
                 	LD   R30,Z
                 	.ENDM
                 
                 	.MACRO __GETB1HSX
                 	MOVW R30,R28
                 	SUBI R30,LOW(-@0)
                 	SBCI R31,HIGH(-@0)
                 	LD   R31,Z
                 	.ENDM
                 
                 	.MACRO __GETW1SX
                 	MOVW R30,R28
                 	SUBI R30,LOW(-@0)
                 	SBCI R31,HIGH(-@0)
                 	CALL __GETW1Z
                 	.ENDM
                 
                 	.MACRO __GETD1SX
                 	MOVW R30,R28
                 	SUBI R30,LOW(-@0)
                 	SBCI R31,HIGH(-@0)
                 	CALL __GETD1Z
                 	.ENDM
                 
                 	.MACRO __GETB2SX
                 	MOVW R26,R28
                 	SUBI R26,LOW(-@0)
                 	SBCI R27,HIGH(-@0)
                 	LD   R26,X
                 	.ENDM
                 
                 	.MACRO __GETW2SX
                 	MOVW R26,R28
                 	SUBI R26,LOW(-@0)
                 	SBCI R27,HIGH(-@0)
                 	CALL __GETW2X
                 	.ENDM
                 
                 	.MACRO __GETD2SX
                 	MOVW R26,R28
                 	SUBI R26,LOW(-@0)
                 	SBCI R27,HIGH(-@0)
                 	CALL __GETD2X
                 	.ENDM
                 
                 	.MACRO __GETBRSX
                 	MOVW R30,R28
                 	SUBI R30,LOW(-@1)
                 	SBCI R31,HIGH(-@1)
                 	LD   R@0,Z
                 	.ENDM
                 
                 	.MACRO __GETWRSX
                 	MOVW R30,R28
                 	SUBI R30,LOW(-@2)
                 	SBCI R31,HIGH(-@2)
                 	LD   R@0,Z+
                 	LD   R@1,Z
                 	.ENDM
                 
                 	.MACRO __GETBRSX2
                 	MOVW R26,R28
                 	SUBI R26,LOW(-@1)
                 	SBCI R27,HIGH(-@1)
                 	LD   R@0,X
                 	.ENDM
                 
                 	.MACRO __GETWRSX2
                 	MOVW R26,R28
                 	SUBI R26,LOW(-@2)
                 	SBCI R27,HIGH(-@2)
                 	LD   R@0,X+
                 	LD   R@1,X
                 	.ENDM
                 
                 	.MACRO __LSLW8SX
                 	MOVW R30,R28
                 	SUBI R30,LOW(-@0)
                 	SBCI R31,HIGH(-@0)
                 	LD   R31,Z
                 	CLR  R30
                 	.ENDM
                 
                 	.MACRO __PUTB1SX
                 	MOVW R26,R28
                 	SUBI R26,LOW(-@0)
                 	SBCI R27,HIGH(-@0)
                 	ST   X,R30
                 	.ENDM
                 
                 	.MACRO __PUTW1SX
                 	MOVW R26,R28
                 	SUBI R26,LOW(-@0)
                 	SBCI R27,HIGH(-@0)
                 	ST   X+,R30
                 	ST   X,R31
                 	.ENDM
                 
                 	.MACRO __PUTD1SX
                 	MOVW R26,R28
                 	SUBI R26,LOW(-@0)
                 	SBCI R27,HIGH(-@0)
                 	ST   X+,R30
                 	ST   X+,R31
                 	ST   X+,R22
                 	ST   X,R23
                 	.ENDM
                 
                 	.MACRO __CLRW1SX
                 	MOVW R26,R28
                 	SUBI R26,LOW(-@0)
                 	SBCI R27,HIGH(-@0)
                 	ST   X+,R30
                 	ST   X,R30
                 	.ENDM
                 
                 	.MACRO __CLRD1SX
                 	MOVW R26,R28
                 	SUBI R26,LOW(-@0)
                 	SBCI R27,HIGH(-@0)
                 	ST   X+,R30
                 	ST   X+,R30
                 	ST   X+,R30
                 	ST   X,R30
                 	.ENDM
                 
                 	.MACRO __PUTB2SX
                 	MOVW R30,R28
                 	SUBI R30,LOW(-@0)
                 	SBCI R31,HIGH(-@0)
                 	ST   Z,R26
                 	.ENDM
                 
                 	.MACRO __PUTW2SX
                 	MOVW R30,R28
                 	SUBI R30,LOW(-@0)
                 	SBCI R31,HIGH(-@0)
                 	ST   Z+,R26
                 	ST   Z,R27
                 	.ENDM
                 
                 	.MACRO __PUTD2SX
                 	MOVW R30,R28
                 	SUBI R30,LOW(-@0)
                 	SBCI R31,HIGH(-@0)
                 	ST   Z+,R26
                 	ST   Z+,R27
                 	ST   Z+,R24
                 	ST   Z,R25
                 	.ENDM
                 
                 	.MACRO __PUTBSRX
                 	MOVW R30,R28
                 	SUBI R30,LOW(-@1)
                 	SBCI R31,HIGH(-@1)
                 	ST   Z,R@0
                 	.ENDM
                 
                 	.MACRO __PUTWSRX
                 	MOVW R30,R28
                 	SUBI R30,LOW(-@2)
                 	SBCI R31,HIGH(-@2)
                 	ST   Z+,R@0
                 	ST   Z,R@1
                 	.ENDM
                 
                 	.MACRO __PUTB1SNX
                 	MOVW R26,R28
                 	SUBI R26,LOW(-@0)
                 	SBCI R27,HIGH(-@0)
                 	LD   R0,X+
                 	LD   R27,X
                 	MOV  R26,R0
                 	SUBI R26,LOW(-@1)
                 	SBCI R27,HIGH(-@1)
                 	ST   X,R30
                 	.ENDM
                 
                 	.MACRO __PUTW1SNX
                 	MOVW R26,R28
                 	SUBI R26,LOW(-@0)
                 	SBCI R27,HIGH(-@0)
                 	LD   R0,X+
                 	LD   R27,X
                 	MOV  R26,R0
                 	SUBI R26,LOW(-@1)
                 	SBCI R27,HIGH(-@1)
                 	ST   X+,R30
                 	ST   X,R31
                 	.ENDM
                 
                 	.MACRO __PUTD1SNX
                 	MOVW R26,R28
                 	SUBI R26,LOW(-@0)
                 	SBCI R27,HIGH(-@0)
                 	LD   R0,X+
                 	LD   R27,X
                 	MOV  R26,R0
                 	SUBI R26,LOW(-@1)
                 	SBCI R27,HIGH(-@1)
                 	ST   X+,R30
                 	ST   X+,R31
                 	ST   X+,R22
                 	ST   X,R23
                 	.ENDM
                 
                 	.MACRO __MULBRR
                 	MULS R@0,R@1
                 	MOVW R30,R0
                 	.ENDM
                 
                 	.MACRO __MULBRRU
                 	MUL  R@0,R@1
                 	MOVW R30,R0
                 	.ENDM
                 
                 	.MACRO __MULBRR0
                 	MULS R@0,R@1
                 	.ENDM
                 
                 	.MACRO __MULBRRU0
                 	MUL  R@0,R@1
                 	.ENDM
                 
                 	.MACRO __MULBNWRU
                 	LDI  R26,@2
                 	MUL  R26,R@0
                 	MOVW R30,R0
                 	MUL  R26,R@1
                 	ADD  R31,R0
                 	.ENDM
                 
                 ;GPIOR0 INITIALIZATION VALUE
                 	.EQU __GPIOR0_INIT=0x00
                 
                 	.CSEG
                 	.ORG 0x00
                 
                 ;START OF CODE MARKER
                 __START_OF_CODE:
                 
                 ;INTERRUPT VECTORS
000000 940c 0077 	JMP  __RESET
000002 940c 0000 	JMP  0x00
000004 940c 0000 	JMP  0x00
000006 940c 0000 	JMP  0x00
000008 940c 0000 	JMP  0x00
00000a 940c 0000 	JMP  0x00
00000c 940c 0000 	JMP  0x00
00000e 940c 0000 	JMP  0x00
000010 940c 0000 	JMP  0x00
000012 940c 0000 	JMP  0x00
000014 940c 0000 	JMP  0x00
000016 940c 0000 	JMP  0x00
000018 940c 0000 	JMP  0x00
00001a 940c 0219 	JMP  _timer1_ovf_isr
00001c 940c 0000 	JMP  0x00
00001e 940c 0000 	JMP  0x00
000020 940c 0000 	JMP  0x00
000022 940c 0000 	JMP  0x00
000024 940c 012e 	JMP  _usart_rx_isr
000026 940c 0000 	JMP  0x00
000028 940c 014d 	JMP  _usart_tx_isr
00002a 940c 0000 	JMP  0x00
00002c 940c 0000 	JMP  0x00
00002e 940c 0000 	JMP  0x00
000030 940c 0000 	JMP  0x00
000032 940c 0000 	JMP  0x00
                 
                 _sensor_port_index_G003:
000034 0000
000035 0000
000036 0000
000037 0101      	.DB  0x0,0x0,0x0,0x0,0x0,0x0,0x1,0x1
                 _sensor_bit_mask_G003:
000038 0201
000039 0804
00003a 2010
00003b 8040      	.DB  0x1,0x2,0x4,0x8,0x10,0x20,0x40,0x80
                 
                 _0x0:
00003c 0a0d
00003d 7025
00003e 7620
00003f 7025      	.DB  0xD,0xA,0x25,0x70,0x20,0x76,0x25,0x70
000040 2820
000041 7562
000042 6c69
000043 2064      	.DB  0x20,0x28,0x62,0x75,0x69,0x6C,0x64,0x20
000044 7025
000045 2029
000046 7025
000047 2520      	.DB  0x25,0x70,0x29,0x20,0x25,0x70,0x20,0x25
000048 0d70
000049 000a
00004a 6c53
00004b 746f      	.DB  0x70,0xD,0xA,0x0,0x53,0x6C,0x6F,0x74
00004c 5746
00004d 3000
00004e 312e
00004f 302e      	.DB  0x46,0x57,0x0,0x30,0x2E,0x31,0x2E,0x30
000050 3000
000051 3030
000052 0031
000053 614a      	.DB  0x0,0x30,0x30,0x30,0x31,0x0,0x4A,0x61
000054 206e
000055 3031
000056 3220
000057 3230      	.DB  0x6E,0x20,0x31,0x30,0x20,0x32,0x30,0x32
000058 0036
000059 3431
00005a 353a
00005b 3a33      	.DB  0x36,0x0,0x31,0x34,0x3A,0x35,0x33,0x3A
00005c 3834
00005d 4000
00005e 6325
00005f 252c      	.DB  0x34,0x38,0x0,0x40,0x25,0x63,0x2C,0x25
000060 756c
000061 0d2c
000062 000a      	.DB  0x6C,0x75,0x2C,0xD,0xA,0x0
                 _0x80003:
Z:\OneDrive\TR\CV_data_use_me\TRproducts\SCLmega328-260101\Debug\List\SCL-260101.asm(1473): warning: .cseg .db misalignment - padding zero byte
000063 0001      	.DB  0x1
                 _0x80004:
Z:\OneDrive\TR\CV_data_use_me\TRproducts\SCLmega328-260101\Debug\List\SCL-260101.asm(1475): warning: .cseg .db misalignment - padding zero byte
000064 0001      	.DB  0x1
                 _0x80000:
000065 5440
000066 252c
000067 756c
000068 252c      	.DB  0x40,0x54,0x2C,0x25,0x6C,0x75,0x2C,0x25
000069 756c
00006a 0d2c
00006b 000a      	.DB  0x6C,0x75,0x2C,0xD,0xA,0x0
                 _0xC0000:
00006c 4440
00006d 252c
00006e 0d73
00006f 000a      	.DB  0x40,0x44,0x2C,0x25,0x73,0xD,0xA,0x0
                 
                 __GLOBAL_INI_TBL:
000070 0001      	.DW  0x01
000071 0560      	.DW  _last_raw_S0040001000
000072 00c6      	.DW  _0x80003*2
                 
000073 0001      	.DW  0x01
000074 0561      	.DW  _stable_state_S0040001000
000075 00c8      	.DW  _0x80004*2
                 
                 _0xFFFFFFFF:
000076 0000      	.DW  0
                 
                 #define __GLOBAL_INI_TBL_PRESENT 1
                 
                 __RESET:
000077 94f8      	CLI
000078 27ee      	CLR  R30
000079 bbef      	OUT  EECR,R30
                 
                 ;INTERRUPT VECTORS ARE PLACED
                 ;AT THE START OF FLASH
00007a e0f1      	LDI  R31,1
00007b bff5      	OUT  MCUCR,R31
00007c bfe5      	OUT  MCUCR,R30
                 
                 ;CLEAR R2-R14
00007d e08d      	LDI  R24,(14-2)+1
00007e e0a2      	LDI  R26,2
00007f 27bb      	CLR  R27
                 __CLEAR_REG:
000080 93ed      	ST   X+,R30
000081 958a      	DEC  R24
000082 f7e9      	BRNE __CLEAR_REG
                 
                 ;CLEAR SRAM
000083 e080      	LDI  R24,LOW(__CLEAR_SRAM_SIZE)
000084 e098      	LDI  R25,HIGH(__CLEAR_SRAM_SIZE)
000085 e0a0      	LDI  R26,LOW(__SRAM_START)
000086 e0b1      	LDI  R27,HIGH(__SRAM_START)
                 __CLEAR_SRAM:
000087 93ed      	ST   X+,R30
000088 9701      	SBIW R24,1
000089 f7e9      	BRNE __CLEAR_SRAM
                 
                 ;GLOBAL VARIABLES INITIALIZATION
00008a eee0      	LDI  R30,LOW(__GLOBAL_INI_TBL*2)
00008b e0f0      	LDI  R31,HIGH(__GLOBAL_INI_TBL*2)
                 __GLOBAL_INI_NEXT:
00008c 9185      	LPM  R24,Z+
00008d 9195      	LPM  R25,Z+
00008e 9700      	SBIW R24,0
00008f f061      	BREQ __GLOBAL_INI_END
000090 91a5      	LPM  R26,Z+
000091 91b5      	LPM  R27,Z+
000092 9005      	LPM  R0,Z+
000093 9015      	LPM  R1,Z+
000094 01bf      	MOVW R22,R30
000095 01f0      	MOVW R30,R0
                 __GLOBAL_INI_LOOP:
000096 9005      	LPM  R0,Z+
000097 920d      	ST   X+,R0
000098 9701      	SBIW R24,1
000099 f7e1      	BRNE __GLOBAL_INI_LOOP
00009a 01fb      	MOVW R30,R22
00009b cff0      	RJMP __GLOBAL_INI_NEXT
                 __GLOBAL_INI_END:
                 
                 ;GPIOR0 INITIALIZATION
00009c e0e0      	LDI  R30,__GPIOR0_INIT
00009d bbee      	OUT  GPIOR0,R30
                 
                 ;HARDWARE STACK POINTER INITIALIZATION
00009e efef      	LDI  R30,LOW(__SRAM_END-__HEAP_SIZE)
00009f bfed      	OUT  SPL,R30
0000a0 e0e8      	LDI  R30,HIGH(__SRAM_END-__HEAP_SIZE)
0000a1 bfee      	OUT  SPH,R30
                 
                 ;DATA STACK POINTER INITIALIZATION
0000a2 e0c0      	LDI  R28,LOW(__SRAM_START+__DSTACK_SIZE)
0000a3 e0d3      	LDI  R29,HIGH(__SRAM_START+__DSTACK_SIZE)
                 
0000a4 940c 00f8 	JMP  _main
                 
                 	.ESEG
                 	.ORG 0x00
                 
                 	.DSEG
                 	.ORG 0x300
                 
                 	.CSEG
                 	#ifndef __SLEEP_DEFINED__
                 	#define __SLEEP_DEFINED__
                 	.EQU __se_bit=0x01
                 	.EQU __sm_mask=0x0E
                 	.EQU __sm_adc_noise_red=0x02
                 	.EQU __sm_powerdown=0x04
                 	.EQU __sm_powersave=0x06
                 	.EQU __sm_standby=0x0C
                 	.EQU __sm_ext_standby=0x0E
                 	.SET power_ctrl_reg=smcr
                 	#endif
                 ;void led_poweron_blink(void)
                 ; 0000 0046 {
                 
                 	.CSEG
                 _led_poweron_blink:
                 ; .FSTART _led_poweron_blink
                 ; 0000 0047 unsigned char i;
                 ; 0000 0048 for (i = 0; i < 4; i++)
0000a6 931a      	ST   -Y,R17
                 ;	i -> R17
0000a7 e010      	LDI  R17,LOW(0)
                 _0x4:
0000a8 3014      	CPI  R17,4
0000a9 f460      	BRSH _0x5
                 ; 0000 0049 {
                 ; 0000 004A LED1_ON();   delay_ms(150);    LED1_OFF();   delay_ms(150);
0000aa 9a5a      	SBI  0xB,2
0000ab e9a6      	LDI  R26,LOW(150)
0000ac e0b0      	LDI  R27,0
0000ad 940e 067a 	CALL _delay_ms
0000af 985a      	CBI  0xB,2
0000b0 e9a6      	LDI  R26,LOW(150)
0000b1 e0b0      	LDI  R27,0
0000b2 940e 067a 	CALL _delay_ms
                 ; 0000 004B }
0000b4 5f1f      	SUBI R17,-1
0000b5 cff2      	RJMP _0x4
                 _0x5:
                 ; 0000 004C }
0000b6 c0df      	RJMP _0x2060003
                 ; .FEND
                 ;static void print_startup_banner(void)
                 ; 0000 004F {
                 _print_startup_banner_G000:
                 ; .FSTART _print_startup_banner_G000
                 ; 0000 0050 // %p = FLASH string in CodeVision
                 ; 0000 0051 printf("\r\n%p v%p (build %p) %p %p\r\n",
                 ; 0000 0052 FW_NAME, FW_VERSION, FW_BUILD_NUM, FW_BUILD_DATE, FW_BUILD_TIME);
                +
0000b7 e7e8     +LDI R30 , LOW ( 2 * _0x0 + ( 0 ) )
0000b8 e0f0     +LDI R31 , HIGH ( 2 * _0x0 + ( 0 ) )
                 	__POINTW1FN _0x0,0
0000b9 93fa      	ST   -Y,R31
0000ba 93ea      	ST   -Y,R30
                +
0000bb e9e4     +LDI R30 , LOW ( 2 * _0x0 + ( 28 ) )
0000bc e0f0     +LDI R31 , HIGH ( 2 * _0x0 + ( 28 ) )
                 	__POINTW1FN _0x0,28
0000bd 940e 0559 	CALL SUBOPT_0x0
                +
0000bf e9eb     +LDI R30 , LOW ( 2 * _0x0 + ( 35 ) )
0000c0 e0f0     +LDI R31 , HIGH ( 2 * _0x0 + ( 35 ) )
                 	__POINTW1FN _0x0,35
0000c1 940e 0559 	CALL SUBOPT_0x0
                +
0000c3 eae1     +LDI R30 , LOW ( 2 * _0x0 + ( 41 ) )
0000c4 e0f0     +LDI R31 , HIGH ( 2 * _0x0 + ( 41 ) )
                 	__POINTW1FN _0x0,41
0000c5 940e 0559 	CALL SUBOPT_0x0
                +
0000c7 eae6     +LDI R30 , LOW ( 2 * _0x0 + ( 46 ) )
0000c8 e0f0     +LDI R31 , HIGH ( 2 * _0x0 + ( 46 ) )
                 	__POINTW1FN _0x0,46
0000c9 940e 0559 	CALL SUBOPT_0x0
                +
0000cb ebe2     +LDI R30 , LOW ( 2 * _0x0 + ( 58 ) )
0000cc e0f0     +LDI R31 , HIGH ( 2 * _0x0 + ( 58 ) )
                 	__POINTW1FN _0x0,58
0000cd 940e 0559 	CALL SUBOPT_0x0
0000cf e184      	LDI  R24,20
0000d0 940e 0519 	CALL _printf
0000d2 9666      	ADIW R28,22
                 ; 0000 0053 }
0000d3 9508      	RET
                 ; .FEND
                 ;static void protocol_on_cmd(char cmd, const char* args)
                 ; 0000 0059 {
                 _protocol_on_cmd_G000:
                 ; .FSTART _protocol_on_cmd_G000
                 ; 0000 005A switch (cmd)
0000d4 940e 05f2 	CALL __SAVELOCR4
0000d6 018d      	MOVW R16,R26
0000d7 813c      	LDD  R19,Y+4
                 ;	cmd -> R19
                 ;	*args -> R16,R17
0000d8 2fe3      	MOV  R30,R19
0000d9 e0f0      	LDI  R31,0
                 ; 0000 005B {
                 ; 0000 005C case 'P':
0000da 35e0      	CPI  R30,LOW(0x50)
0000db e0a0      	LDI  R26,HIGH(0x50)
0000dc 07fa      	CPC  R31,R26
0000dd f471      	BRNE _0x9
                 ; 0000 005D if (args && args[0] == '1')
0000de 2e00      	MOV  R0,R16
0000df 2a01      	OR   R0,R17
0000e0 f021      	BREQ _0xB
0000e1 01d8      	MOVW R26,R16
0000e2 91ac      	LD   R26,X
0000e3 33a1      	CPI  R26,LOW(0x31)
0000e4 f009      	BREQ _0xC
                 _0xB:
0000e5 c003      	RJMP _0xA
                 _0xC:
                 ; 0000 005E track_power_on();
0000e6 940e 0342 	CALL _track_power_on
                 ; 0000 005F else
0000e8 c002      	RJMP _0xD
                 _0xA:
                 ; 0000 0060 track_power_off();
0000e9 940e 0345 	CALL _track_power_off
                 ; 0000 0061 break;
                 _0xD:
0000eb c00a      	RJMP _0x8
                 ; 0000 0062 
                 ; 0000 0063 case 'S':
                 _0x9:
0000ec 35e3      	CPI  R30,LOW(0x53)
0000ed e0a0      	LDI  R26,HIGH(0x53)
0000ee 07fa      	CPC  R31,R26
0000ef f031      	BREQ _0x8
                 ; 0000 0064 // start_lights_sequence();
                 ; 0000 0065 break;
                 ; 0000 0066 
                 ; 0000 0067 case 'X':
0000f0 35e8      	CPI  R30,LOW(0x58)
0000f1 e0a0      	LDI  R26,HIGH(0x58)
0000f2 07fa      	CPC  R31,R26
0000f3 f411      	BRNE _0x8
                 ; 0000 0068 track_power_off();
0000f4 940e 0345 	CALL _track_power_off
                 ; 0000 0069 //   lights_off();
                 ; 0000 006A break;
                 ; 0000 006B }
                 _0x8:
                 ; 0000 006C 
                 ; 0000 006D }
0000f6 940c 0352 	JMP  _0x2060002
                 ; .FEND
                 ;void main(void)
                 ; 0000 0072 {
                 _main:
                 ; .FSTART _main
                 ; 0000 0073 unsigned char lane;
                 ; 0000 0074 char lane_char;
                 ; 0000 0075 setup();
                 ;	lane -> R17
                 ;	lane_char -> R16
0000f8 940e 01c8 	CALL _setup
                 ; 0000 0076 uart_init(9600);
                +
0000fa e8a0     +LDI R26 , LOW ( 0x2580 )
0000fb e2b5     +LDI R27 , HIGH ( 0x2580 )
0000fc e080     +LDI R24 , BYTE3 ( 0x2580 )
0000fd e090     +LDI R25 , BYTE4 ( 0x2580 )
                 	__GETD2N 0x2580
0000fe d099      	RCALL _uart_init
                 ; 0000 0077 switches_init();
0000ff 940e 02a1 	CALL _switches_init
                 ; 0000 0078 led_poweron_blink();
000101 dfa4      	RCALL _led_poweron_blink
                 ; 0000 0079 print_startup_banner();
000102 dfb4      	RCALL _print_startup_banner_G000
                 ; 0000 007A protocol_init(protocol_on_cmd); // pass function
000103 eda4      	LDI  R26,LOW(_protocol_on_cmd_G000)
000104 e0b0      	LDI  R27,HIGH(_protocol_on_cmd_G000)
000105 940e 0335 	CALL _protocol_init
                 ; 0000 007B while (1)
                 _0x10:
                 ; 0000 007C {
                 ; 0000 007D // no delays allowed in while loop
                 ; 0000 007E // We need to send data to PC as soon as possible
                 ; 0000 007F for (lane = 0; lane < 8; lane++)
000107 e010      	LDI  R17,LOW(0)
                 _0x14:
000108 3018      	CPI  R17,8
000109 f500      	BRSH _0x15
                 ; 0000 0080 {
                 ; 0000 0081 if (lane_event_pending[lane])
00010a 940e 055e 	CALL SUBOPT_0x1
00010c 81e0      	LD   R30,Z
00010d 30e0      	CPI  R30,0
00010e f0c9      	BREQ _0x16
                 ; 0000 0082 {
                 ; 0000 0083 unsigned long t = lane_event_time[lane];
                 ; 0000 0084 lane_event_pending[lane] = 0;
00010f 9724      	SBIW R28,4
                 ;	t -> Y+0
000110 940e 0563 	CALL SUBOPT_0x2
000112 940e 056a 	CALL SUBOPT_0x3
000114 940e 0571 	CALL SUBOPT_0x4
000116 940e 055e 	CALL SUBOPT_0x1
000118 e0a0      	LDI  R26,LOW(0)
000119 83a0      	STD  Z+0,R26
                 ; 0000 0085 
                 ; 0000 0086 lane_char = 'A' + lane;
00011a 2fe1      	MOV  R30,R17
00011b 5bef      	SUBI R30,-LOW(65)
00011c 2f0e      	MOV  R16,R30
                 ; 0000 0087 
                 ; 0000 0088 // NOW with trailing comma after timestamp
                 ; 0000 0089 // Format: @A,<timestamp>,\r\n
                 ; 0000 008A // Lane 1 to 8 is A to H
                 ; 0000 008B printf("@%c,%lu,\r\n", lane_char, t);
                +
00011d ebeb     +LDI R30 , LOW ( 2 * _0x0 + ( 67 ) )
00011e e0f0     +LDI R31 , HIGH ( 2 * _0x0 + ( 67 ) )
                 	__POINTW1FN _0x0,67
00011f 93fa      	ST   -Y,R31
000120 93ea      	ST   -Y,R30
000121 2fe0      	MOV  R30,R16
000122 27ff      	CLR  R31
000123 2766      	CLR  R22
000124 2777      	CLR  R23
000125 940e 0576 	CALL SUBOPT_0x5
                 ; 0000 008C }
000127 9624      	ADIW R28,4
                 ; 0000 008D }
                 _0x16:
000128 5f1f      	SUBI R17,-1
000129 cfde      	RJMP _0x14
                 _0x15:
                 ; 0000 008E 
                 ; 0000 008F switch1_poll(); // it will send data to PC
00012a 940e 02a4 	CALL _switch1_poll
                 ; 0000 0090 }
00012c cfda      	RJMP _0x10
                 ; 0000 0091 }
                 _0x17:
00012d cfff      	RJMP _0x17
                 ; .FEND
                 	#ifndef __SLEEP_DEFINED__
                 	#endif
                 ;interrupt [19] void usart_rx_isr(void)
                 ; 0001 0026 {
                 
                 	.CSEG
                 _usart_rx_isr:
                 ; .FSTART _usart_rx_isr
00012e 940e 0583 	CALL SUBOPT_0x6
                 ; 0001 0027 unsigned char status;
                 ; 0001 0028 char data;
                 ; 0001 0029 status=UCSR0A;
000130 931a      	ST   -Y,R17
000131 930a      	ST   -Y,R16
                 ;	status -> R17
                 ;	data -> R16
000132 9110 00c0 	LDS  R17,192
                 ; 0001 002A data=UDR0;
000134 9100 00c6 	LDS  R16,198
                 ; 0001 002B if ((status & (FRAMING_ERROR | PARITY_ERROR | DATA_OVERRUN))==0)
000136 2fe1      	MOV  R30,R17
000137 71ec      	ANDI R30,LOW(0x1C)
000138 f489      	BRNE _0x20003
                 ; 0001 002C {
                 ; 0001 002D rx_buffer0[rx_wr_index0++]=data;
000139 91e0 042c 	LDS  R30,_rx_wr_index0
00013b 5fef      	SUBI R30,-LOW(1)
00013c 93e0 042c 	STS  _rx_wr_index0,R30
00013e 50e1      	SUBI R30,LOW(1)
00013f e0f0      	LDI  R31,0
000140 5de4      	SUBI R30,LOW(-_rx_buffer0)
000141 4ffc      	SBCI R31,HIGH(-_rx_buffer0)
000142 8300      	ST   Z,R16
                 ; 0001 002E #if RX_BUFFER_SIZE0 == 256
                 ; 0001 002F // special case for receiver buffer size=256
                 ; 0001 0030 if (++rx_counter0 == 0) rx_buffer_overflow0=1;
000143 e2ae      	LDI  R26,LOW(_rx_counter0)
000144 e0b4      	LDI  R27,HIGH(_rx_counter0)
000145 940e 058a 	CALL SUBOPT_0x7
000147 9730      	SBIW R30,0
000148 f409      	BRNE _0x20004
000149 9af0      	SBI  0x1E,0
                 ; 0001 0031 #else
                 ; 0001 0032 if (rx_wr_index0 == RX_BUFFER_SIZE0) rx_wr_index0=0;
                 ; 0001 0033 if (++rx_counter0 == RX_BUFFER_SIZE0)
                 ; 0001 0034 {
                 ; 0001 0035 rx_counter0=0;
                 ; 0001 0036 rx_buffer_overflow0=1;
                 ; 0001 0037 }
                 ; 0001 0038 #endif
                 ; 0001 0039 }
                 _0x20004:
                 ; 0001 003A }
                 _0x20003:
00014a 9109      	LD   R16,Y+
00014b 9119      	LD   R17,Y+
00014c c01b      	RJMP _0x20013
                 ; .FEND
                 ;char getchar(void)
                 ; 0001 0040 {
                 ; 0001 0041 char data;
                 ; 0001 0042 while (rx_counter0==0);
                 ;	data -> R17
                 ; 0001 0043 data=rx_buffer0[rx_rd_index0++];
                 ; 0001 0044 #if RX_BUFFER_SIZE0 != 256
                 ; 0001 0045 if (rx_rd_index0 == RX_BUFFER_SIZE0) rx_rd_index0=0;
                 ; 0001 0046 #endif
                 ; 0001 0047 #asm("cli")
                 ; 0001 0048 --rx_counter0;
                 ; 0001 0049 #asm("sei")
                 ; 0001 004A return data;
                 ; 0001 004B }
                 ;interrupt [21] void usart_tx_isr(void)
                 ; 0001 0060 {
                 _usart_tx_isr:
                 ; .FSTART _usart_tx_isr
00014d 940e 0583 	CALL SUBOPT_0x6
                 ; 0001 0061 if (tx_counter0)
00014f 91e0 0532 	LDS  R30,_tx_counter0
000151 91f0 0533 	LDS  R31,_tx_counter0+1
000153 9730      	SBIW R30,0
000154 f099      	BREQ _0x2000A
                 ; 0001 0062 {
                 ; 0001 0063 --tx_counter0;
000155 e3a2      	LDI  R26,LOW(_tx_counter0)
000156 e0b5      	LDI  R27,HIGH(_tx_counter0)
000157 91ed      	LD   R30,X+
000158 91fd      	LD   R31,X+
000159 9731      	SBIW R30,1
00015a 93fe      	ST   -X,R31
00015b 93ee      	ST   -X,R30
                 ; 0001 0064 UDR0=tx_buffer0[tx_rd_index0++];
00015c 91e0 0531 	LDS  R30,_tx_rd_index0
00015e 5fef      	SUBI R30,-LOW(1)
00015f 93e0 0531 	STS  _tx_rd_index0,R30
000161 50e1      	SUBI R30,LOW(1)
000162 e0f0      	LDI  R31,0
000163 5de0      	SUBI R30,LOW(-_tx_buffer0)
000164 4ffb      	SBCI R31,HIGH(-_tx_buffer0)
000165 81e0      	LD   R30,Z
000166 93e0 00c6 	STS  198,R30
                 ; 0001 0065 #if TX_BUFFER_SIZE0 != 256
                 ; 0001 0066 if (tx_rd_index0 == TX_BUFFER_SIZE0) tx_rd_index0=0;
                 ; 0001 0067 #endif
                 ; 0001 0068 }
                 ; 0001 0069 }
                 _0x2000A:
                 _0x20013:
000168 91e9      	LD   R30,Y+
000169 bfef      	OUT  SREG,R30
00016a 91f9      	LD   R31,Y+
00016b 91e9      	LD   R30,Y+
00016c 91b9      	LD   R27,Y+
00016d 91a9      	LD   R26,Y+
00016e 9518      	RETI
                 ; .FEND
                 ;void putchar(char c)
                 ; 0001 006F {
                 _putchar:
                 ; .FSTART _putchar
                 ; 0001 0070 while (tx_counter0 == TX_BUFFER_SIZE0);
00016f 931a      	ST   -Y,R17
000170 2f1a      	MOV  R17,R26
                 ;	c -> R17
                 _0x2000B:
000171 91a0 0532 	LDS  R26,_tx_counter0
000173 91b0 0533 	LDS  R27,_tx_counter0+1
000175 30a0      	CPI  R26,LOW(0x100)
000176 e0e1      	LDI  R30,HIGH(0x100)
000177 07be      	CPC  R27,R30
000178 f3c1      	BREQ _0x2000B
                 ; 0001 0071 #asm("cli")
000179 94f8      	CLI
                 ; 0001 0072 if (tx_counter0 || ((UCSR0A & DATA_REGISTER_EMPTY)==0))
00017a 91e0 0532 	LDS  R30,_tx_counter0
00017c 91f0 0533 	LDS  R31,_tx_counter0+1
00017e 9730      	SBIW R30,0
00017f f421      	BRNE _0x2000F
000180 91e0 00c0 	LDS  R30,192
000182 72e0      	ANDI R30,LOW(0x20)
000183 f479      	BRNE _0x2000E
                 _0x2000F:
                 ; 0001 0073 {
                 ; 0001 0074 tx_buffer0[tx_wr_index0++]=c;
000184 91e0 0530 	LDS  R30,_tx_wr_index0
000186 5fef      	SUBI R30,-LOW(1)
000187 93e0 0530 	STS  _tx_wr_index0,R30
000189 50e1      	SUBI R30,LOW(1)
00018a e0f0      	LDI  R31,0
00018b 5de0      	SUBI R30,LOW(-_tx_buffer0)
00018c 4ffb      	SBCI R31,HIGH(-_tx_buffer0)
00018d 8310      	ST   Z,R17
                 ; 0001 0075 #if TX_BUFFER_SIZE0 != 256
                 ; 0001 0076 if (tx_wr_index0 == TX_BUFFER_SIZE0) tx_wr_index0=0;
                 ; 0001 0077 #endif
                 ; 0001 0078 ++tx_counter0;
00018e e3a2      	LDI  R26,LOW(_tx_counter0)
00018f e0b5      	LDI  R27,HIGH(_tx_counter0)
000190 940e 058a 	CALL SUBOPT_0x7
                 ; 0001 0079 }
                 ; 0001 007A else
000192 c002      	RJMP _0x20011
                 _0x2000E:
                 ; 0001 007B UDR0=c;
000193 9310 00c6 	STS  198,R17
                 ; 0001 007C #asm("sei")
                 _0x20011:
000195 9478      	SEI
                 ; 0001 007D }
                 _0x2060003:
000196 9119      	LD   R17,Y+
000197 9508      	RET
                 ; .FEND
                 ;void uart_init_codeVision_Wizzard(void)
                 ; 0001 0080 {
                 ; 0001 0081 
                 ; 0001 0082 // USART initialization
                 ; 0001 0083 // Communication Parameters: 8 Data, 1 Stop, No Parity
                 ; 0001 0084 // USART Receiver: On
                 ; 0001 0085 // USART Transmitter: On
                 ; 0001 0086 // USART Mode: Asynchronous
                 ; 0001 0087 // USART Baud Rate: 9600
                 ; 0001 0088 UCSR0A=(0<<RXC0) | (0<<TXC0) | (0<<UDRE0) | (0<<FE0) | (0<<DOR0) | (0<<UPE0) | (0<<U2X0) | (0<<MPCM0);
                 ; 0001 0089 UCSR0B=(1<<RXCIE0) | (1<<TXCIE0) | (0<<UDRIE0) | (1<<RXEN0) | (1<<TXEN0) | (0<<UCSZ02) | (0<<RXB80) | (0<<TXB80);
                 ; 0001 008A UCSR0C=(0<<UMSEL01) | (0<<UMSEL00) | (0<<UPM01) | (0<<UPM00) | (0<<USBS0) | (1<<UCSZ01) | (1<<UCSZ00) | (0<<UCPOL0);
                 ; 0001 008B UBRR0H=0x00;
                 ; 0001 008C UBRR0L=0x67;
                 ; 0001 008D }
                 ;void uart_init(unsigned long baud)
                 ; 0001 0090 {
                 _uart_init:
                 ; .FSTART _uart_init
                 ; 0001 0091 unsigned long ubrr;
                 ; 0001 0092 
                 ; 0001 0093 // Calculate UBRR value
                 ; 0001 0094 // UBRR = (F_CPU / (16 * baud)) - 1
                 ; 0001 0095 ubrr = (F_CPU / (16UL * baud)) - 1UL;
000198 940e 0675 	CALL __PUTPARD2
00019a 9724      	SBIW R28,4
                 ;	baud -> Y+4
                 ;	ubrr -> Y+0
                +
00019b 81ec     +LDD R30 , Y + 4
00019c 81fd     +LDD R31 , Y + 4 + 1
00019d 816e     +LDD R22 , Y + 4 + 2
00019e 817f     +LDD R23 , Y + 4 + 3
                 	__GETD1S 4
                +
00019f e1a0     +LDI R26 , LOW ( 0x10 )
0001a0 e0b0     +LDI R27 , HIGH ( 0x10 )
0001a1 e080     +LDI R24 , BYTE3 ( 0x10 )
0001a2 e090     +LDI R25 , BYTE4 ( 0x10 )
                 	__GETD2N 0x10
0001a3 940e 0622 	CALL __MULD12U
                +
0001a5 e0a0     +LDI R26 , LOW ( 0xF42400 )
0001a6 e2b4     +LDI R27 , HIGH ( 0xF42400 )
0001a7 ef84     +LDI R24 , BYTE3 ( 0xF42400 )
0001a8 e090     +LDI R25 , BYTE4 ( 0xF42400 )
                 	__GETD2N 0xF42400
0001a9 940e 0642 	CALL __DIVD21U
                +
0001ab 50e1     +SUBI R30 , LOW ( 1 )
0001ac 40f0     +SBCI R31 , HIGH ( 1 )
0001ad 4060     +SBCI R22 , BYTE3 ( 1 )
0001ae 4070     +SBCI R23 , BYTE4 ( 1 )
                 	__SUBD1N 1
0001af 940e 0571 	CALL SUBOPT_0x4
                 ; 0001 0096 
                 ; 0001 0097 // Set baud rate
                 ; 0001 0098 UBRR0H = (unsigned char)(ubrr >> 8);
                +
0001b1 81a8     +LDD R26 , Y + 0
0001b2 81b9     +LDD R27 , Y + 0 + 1
0001b3 818a     +LDD R24 , Y + 0 + 2
0001b4 819b     +LDD R25 , Y + 0 + 3
                 	__GETD2S 0
0001b5 e0e8      	LDI  R30,LOW(8)
0001b6 940e 0606 	CALL __LSRD12
0001b8 93e0 00c5 	STS  197,R30
                 ; 0001 0099 UBRR0L = (unsigned char)(ubrr & 0xFF);
0001ba 81e8      	LD   R30,Y
0001bb 93e0 00c4 	STS  196,R30
                 ; 0001 009A 
                 ; 0001 009B // USART initialization
                 ; 0001 009C // 8 data bits, 1 stop bit, no parity, async
                 ; 0001 009D UCSR0A = 0;
0001bd e0e0      	LDI  R30,LOW(0)
0001be 93e0 00c0 	STS  192,R30
                 ; 0001 009E UCSR0B = (1<<RXCIE0) | (1<<TXCIE0) | (1<<RXEN0) | (1<<TXEN0);
0001c0 ede8      	LDI  R30,LOW(216)
0001c1 93e0 00c1 	STS  193,R30
                 ; 0001 009F UCSR0C = (1<<UCSZ01) | (1<<UCSZ00);
0001c3 e0e6      	LDI  R30,LOW(6)
0001c4 93e0 00c2 	STS  194,R30
                 ; 0001 00A0 }
0001c6 9628      	ADIW R28,8
0001c7 9508      	RET
                 ; .FEND
                 ;char uart_try_getchar(char* out)
                 ; 0001 00A3 {
                 ; 0001 00A4 if (rx_counter0 == 0)
                 ;	*out -> R16,R17
                 ; 0001 00A5 return 0; // no data available
                 ; 0001 00A6 
                 ; 0001 00A7 *out = rx_buffer0[rx_rd_index0++];
                 ; 0001 00A8 
                 ; 0001 00A9 #if RX_BUFFER_SIZE0 != 256
                 ; 0001 00AA if (rx_rd_index0 == RX_BUFFER_SIZE0) rx_rd_index0 = 0;
                 ; 0001 00AB #endif
                 ; 0001 00AC 
                 ; 0001 00AD #asm("cli")
                 ; 0001 00AE --rx_counter0;
                 ; 0001 00AF #asm("sei")
                 ; 0001 00B0 
                 ; 0001 00B1 return 1; // got a byte
                 ; 0001 00B2 }
                 	#ifndef __SLEEP_DEFINED__
                 	#endif
                 ;void setup (void)
                 ; 0002 000D {
                 
                 	.CSEG
                 _setup:
                 ; .FSTART _setup
                 ; 0002 000E 
                 ; 0002 000F // Crystal Oscillator division factor: 1
                 ; 0002 0010 #pragma optsize-
                 ; 0002 0011 CLKPR=(1<<CLKPCE);
0001c8 e8e0      	LDI  R30,LOW(128)
0001c9 93e0 0061 	STS  97,R30
                 ; 0002 0012 CLKPR=(0<<CLKPCE) | (0<<CLKPS3) | (0<<CLKPS2) | (0<<CLKPS1) | (0<<CLKPS0);
0001cb e0e0      	LDI  R30,LOW(0)
0001cc 93e0 0061 	STS  97,R30
                 ; 0002 0013 #ifdef _OPTIMIZE_SIZE_
                 ; 0002 0014 #pragma optsize+
                 ; 0002 0015 #endif
                 ; 0002 0016 
                 ; 0002 0017 // Input/Output Ports initialization
                 ; 0002 0018 // Port B initialization
                 ; 0002 0019 // Function: Bit7=In Bit6=In Bit5=In Bit4=In Bit3=In Bit2=In Bit1=In Bit0=In
                 ; 0002 001A DDRB=(0<<DDB7) | (0<<DDB6) | (0<<DDB5) | (0<<DDB4) | (0<<DDB3) | (0<<DDB2) | (0<<DDB1) | (0<<DDB0);
0001ce b9e4      	OUT  0x4,R30
                 ; 0002 001B // State: Bit7=T Bit6=T Bit5=T Bit4=T Bit3=T Bit2=T Bit1=T Bit0=T
                 ; 0002 001C PORTB=(0<<PORTB7) | (0<<PORTB6) | (0<<PORTB5) | (0<<PORTB4) | (0<<PORTB3) | (0<<PORTB2) | (0<<PORTB1) | (0<<PORTB0);
0001cf b9e5      	OUT  0x5,R30
                 ; 0002 001D 
                 ; 0002 001E // Port C initialization
                 ; 0002 001F // Function: Bit6=In Bit5=In Bit4=Out Bit3=Out Bit2=Out Bit1=Out Bit0=Out
                 ; 0002 0020 DDRC=(0<<DDC6) | (0<<DDC5) | (1<<DDC4) | (1<<DDC3) | (1<<DDC2) | (1<<DDC1) | (1<<DDC0);
0001d0 e1ef      	LDI  R30,LOW(31)
0001d1 b9e7      	OUT  0x7,R30
                 ; 0002 0021 // State: Bit6=T Bit5=T Bit4=0 Bit3=0 Bit2=0 Bit1=0 Bit0=0
                 ; 0002 0022 PORTC=(0<<PORTC6) | (0<<PORTC5) | (0<<PORTC4) | (0<<PORTC3) | (0<<PORTC2) | (0<<PORTC1) | (0<<PORTC0);
0001d2 e0e0      	LDI  R30,LOW(0)
0001d3 b9e8      	OUT  0x8,R30
                 ; 0002 0023 
                 ; 0002 0024 // Port D initialization
                 ; 0002 0025 // Function: Bit7=In Bit6=In Bit5=In Bit4=In Bit3=In Bit2=Out Bit1=Out Bit0=In
                 ; 0002 0026 DDRD=(0<<DDD7) | (0<<DDD6) | (0<<DDD5) | (0<<DDD4) | (0<<DDD3) | (1<<DDD2) | (1<<DDD1) | (0<<DDD0);
0001d4 e0e6      	LDI  R30,LOW(6)
0001d5 b9ea      	OUT  0xA,R30
                 ; 0002 0027 // State: Bit7=T Bit6=T Bit5=T Bit4=T Bit3=T Bit2=0 Bit1=0 Bit0=P
                 ; 0002 0028 PORTD=(0<<PORTD7) | (0<<PORTD6) | (0<<PORTD5) | (0<<PORTD4) | (0<<PORTD3) | (0<<PORTD2) | (0<<PORTD1) | (1<<PORTD0);
0001d6 e0e1      	LDI  R30,LOW(1)
0001d7 b9eb      	OUT  0xB,R30
                 ; 0002 0029 
                 ; 0002 002A // Timer/Counter 0 initialization
                 ; 0002 002B // Clock source: System Clock
                 ; 0002 002C // Clock value: Timer 0 Stopped
                 ; 0002 002D // Mode: Normal top=0xFF
                 ; 0002 002E // OC0A output: Disconnected
                 ; 0002 002F // OC0B output: Disconnected
                 ; 0002 0030 TCCR0A=(0<<COM0A1) | (0<<COM0A0) | (0<<COM0B1) | (0<<COM0B0) | (0<<WGM01) | (0<<WGM00);
0001d8 e0e0      	LDI  R30,LOW(0)
0001d9 bde4      	OUT  0x24,R30
                 ; 0002 0031 TCCR0B=(0<<WGM02) | (0<<CS02) | (0<<CS01) | (0<<CS00);
0001da bde5      	OUT  0x25,R30
                 ; 0002 0032 TCNT0=0x00;
0001db bde6      	OUT  0x26,R30
                 ; 0002 0033 OCR0A=0x00;
0001dc bde7      	OUT  0x27,R30
                 ; 0002 0034 OCR0B=0x00;
0001dd bde8      	OUT  0x28,R30
                 ; 0002 0035 
                 ; 0002 0036 // Timer/Counter 1 initialization
                 ; 0002 0037 // Clock source: System Clock
                 ; 0002 0038 // Clock value: 16000.000 kHz
                 ; 0002 0039 // Mode: Normal top=0xFFFF
                 ; 0002 003A // OC1A output: Disconnected
                 ; 0002 003B // OC1B output: Disconnected
                 ; 0002 003C // Noise Canceler: Off
                 ; 0002 003D // Input Capture on Falling Edge
                 ; 0002 003E // Timer Period: 0.1 ms
                 ; 0002 003F // Timer1 Overflow Interrupt: On
                 ; 0002 0040 // Input Capture Interrupt: Off
                 ; 0002 0041 // Compare A Match Interrupt: Off
                 ; 0002 0042 // Compare B Match Interrupt: Off
                 ; 0002 0043 TCCR1A=(0<<COM1A1) | (0<<COM1A0) | (0<<COM1B1) | (0<<COM1B0) | (0<<WGM11) | (0<<WGM10);
0001de 93e0 0080 	STS  128,R30
                 ; 0002 0044 TCCR1B=(0<<ICNC1) | (0<<ICES1) | (0<<WGM13) | (0<<WGM12) | (0<<CS12) | (0<<CS11) | (1<<CS10);
0001e0 e0e1      	LDI  R30,LOW(1)
0001e1 93e0 0081 	STS  129,R30
                 ; 0002 0045 TCNT1H=0xF9;
0001e3 940e 0590 	CALL SUBOPT_0x8
                 ; 0002 0046 TCNT1L=0xC0;
                 ; 0002 0047 ICR1H=0x00;
0001e5 e0e0      	LDI  R30,LOW(0)
0001e6 93e0 0087 	STS  135,R30
                 ; 0002 0048 ICR1L=0x00;
0001e8 93e0 0086 	STS  134,R30
                 ; 0002 0049 OCR1AH=0x00;
0001ea 93e0 0089 	STS  137,R30
                 ; 0002 004A OCR1AL=0x00;
0001ec 93e0 0088 	STS  136,R30
                 ; 0002 004B OCR1BH=0x00;
0001ee 93e0 008b 	STS  139,R30
                 ; 0002 004C OCR1BL=0x00;
0001f0 93e0 008a 	STS  138,R30
                 ; 0002 004D 
                 ; 0002 004E // Timer/Counter 2 initialization
                 ; 0002 004F // Clock source: System Clock
                 ; 0002 0050 // Clock value: Timer2 Stopped
                 ; 0002 0051 // Mode: Normal top=0xFF
                 ; 0002 0052 // OC2A output: Disconnected
                 ; 0002 0053 // OC2B output: Disconnected
                 ; 0002 0054 ASSR=(0<<EXCLK) | (0<<AS2);
0001f2 93e0 00b6 	STS  182,R30
                 ; 0002 0055 TCCR2A=(0<<COM2A1) | (0<<COM2A0) | (0<<COM2B1) | (0<<COM2B0) | (0<<WGM21) | (0<<WGM20);
0001f4 93e0 00b0 	STS  176,R30
                 ; 0002 0056 TCCR2B=(0<<WGM22) | (0<<CS22) | (0<<CS21) | (0<<CS20);
0001f6 93e0 00b1 	STS  177,R30
                 ; 0002 0057 TCNT2=0x00;
0001f8 93e0 00b2 	STS  178,R30
                 ; 0002 0058 OCR2A=0x00;
0001fa 93e0 00b3 	STS  179,R30
                 ; 0002 0059 OCR2B=0x00;
0001fc 93e0 00b4 	STS  180,R30
                 ; 0002 005A 
                 ; 0002 005B // Timer/Counter 0 Interrupt(s) initialization
                 ; 0002 005C TIMSK0=(0<<OCIE0B) | (0<<OCIE0A) | (0<<TOIE0);
0001fe 93e0 006e 	STS  110,R30
                 ; 0002 005D 
                 ; 0002 005E // Timer/Counter 1 Interrupt(s) initialization
                 ; 0002 005F TIMSK1=(0<<ICIE1) | (0<<OCIE1B) | (0<<OCIE1A) | (1<<TOIE1);
000200 e0e1      	LDI  R30,LOW(1)
000201 93e0 006f 	STS  111,R30
                 ; 0002 0060 
                 ; 0002 0061 // Timer/Counter 2 Interrupt(s) initialization
                 ; 0002 0062 TIMSK2=(0<<OCIE2B) | (0<<OCIE2A) | (0<<TOIE2);
000203 e0e0      	LDI  R30,LOW(0)
000204 93e0 0070 	STS  112,R30
                 ; 0002 0063 
                 ; 0002 0064 // External Interrupt(s) initialization
                 ; 0002 0065 // INT0: Off
                 ; 0002 0066 // INT1: Off
                 ; 0002 0067 // Interrupt on any change on pins PCINT0-7: Off
                 ; 0002 0068 // Interrupt on any change on pins PCINT8-14: Off
                 ; 0002 0069 // Interrupt on any change on pins PCINT16-23: Off
                 ; 0002 006A EICRA=(0<<ISC11) | (0<<ISC10) | (0<<ISC01) | (0<<ISC00);
000206 93e0 0069 	STS  105,R30
                 ; 0002 006B EIMSK=(0<<INT1) | (0<<INT0);
000208 bbed      	OUT  0x1D,R30
                 ; 0002 006C PCICR=(0<<PCIE2) | (0<<PCIE1) | (0<<PCIE0);
000209 93e0 0068 	STS  104,R30
                 ; 0002 006D //------   UART -----------
                 ; 0002 006E 
                 ; 0002 006F // Analog Comparator initialization
                 ; 0002 0070 // Analog Comparator: Off
                 ; 0002 0071 // The Analog Comparator's positive input is
                 ; 0002 0072 // connected to the AIN0 pin
                 ; 0002 0073 // The Analog Comparator's negative input is
                 ; 0002 0074 // connected to the AIN1 pin
                 ; 0002 0075 ACSR=(1<<ACD) | (0<<ACBG) | (0<<ACO) | (0<<ACI) | (0<<ACIE) | (0<<ACIC) | (0<<ACIS1) | (0<<ACIS0);
00020b e8e0      	LDI  R30,LOW(128)
00020c bfe0      	OUT  0x30,R30
                 ; 0002 0076 ADCSRB=(0<<ACME);
00020d e0e0      	LDI  R30,LOW(0)
00020e 93e0 007b 	STS  123,R30
                 ; 0002 0077 // Digital input buffer on AIN0: On
                 ; 0002 0078 // Digital input buffer on AIN1: On
                 ; 0002 0079 DIDR1=(0<<AIN0D) | (0<<AIN1D);
000210 93e0 007f 	STS  127,R30
                 ; 0002 007A 
                 ; 0002 007B // ADC initialization
                 ; 0002 007C // ADC disabled
                 ; 0002 007D ADCSRA=(0<<ADEN) | (0<<ADSC) | (0<<ADATE) | (0<<ADIF) | (0<<ADIE) | (0<<ADPS2) | (0<<ADPS1) | (0<<ADPS0);
000212 93e0 007a 	STS  122,R30
                 ; 0002 007E 
                 ; 0002 007F // SPI initialization
                 ; 0002 0080 // SPI disabled
                 ; 0002 0081 SPCR=(0<<SPIE) | (0<<SPE) | (0<<DORD) | (0<<MSTR) | (0<<CPOL) | (0<<CPHA) | (0<<SPR1) | (0<<SPR0);
000214 bdec      	OUT  0x2C,R30
                 ; 0002 0082 
                 ; 0002 0083 // TWI initialization
                 ; 0002 0084 // TWI disabled
                 ; 0002 0085 TWCR=(0<<TWEA) | (0<<TWSTA) | (0<<TWSTO) | (0<<TWEN) | (0<<TWIE);
000215 93e0 00bc 	STS  188,R30
                 ; 0002 0086 
                 ; 0002 0087 // Globally enable interrupts
                 ; 0002 0088 #asm("sei")
000217 9478      	SEI
                 ; 0002 0089 
                 ; 0002 008A }
000218 9508      	RET
                 ; .FEND
                 	#ifndef __SLEEP_DEFINED__
                 	#endif
                 ;interrupt [14] void timer1_ovf_isr(void)
                 ; 0003 0035 {
                 
                 	.CSEG
                 _timer1_ovf_isr:
                 ; .FSTART _timer1_ovf_isr
000219 936a      	ST   -Y,R22
00021a 937a      	ST   -Y,R23
00021b 938a      	ST   -Y,R24
00021c 939a      	ST   -Y,R25
00021d 93aa      	ST   -Y,R26
00021e 93ba      	ST   -Y,R27
00021f 93ea      	ST   -Y,R30
000220 93fa      	ST   -Y,R31
000221 b7ef      	IN   R30,SREG
000222 93ea      	ST   -Y,R30
                 ; 0003 0036 unsigned long now;
                 ; 0003 0037 unsigned char i;
                 ; 0003 0038 unsigned char pinb;
                 ; 0003 0039 unsigned char pind;
                 ; 0003 003A unsigned char is_low;
                 ; 0003 003B 
                 ; 0003 003C // Reinitialize Timer1 value (adjust 0xF9C0 if you change tick rate)
                 ; 0003 003D TCNT1H = 0xF9C0 >> 8;
000223 9724      	SBIW R28,4
000224 940e 05f2 	CALL __SAVELOCR4
                 ;	now -> Y+4
                 ;	i -> R17
                 ;	pinb -> R16
                 ;	pind -> R19
                 ;	is_low -> R18
000226 940e 0590 	CALL SUBOPT_0x8
                 ; 0003 003E TCNT1L = 0xF9C0 & 0xFF;
                 ; 0003 003F 
                 ; 0003 0040 // Global time tick (overflow rate defines resolution)
                 ; 0003 0041 g_time_ticks++;
000228 e0a0      	LDI  R26,LOW(_g_time_ticks)
000229 e0b3      	LDI  R27,HIGH(_g_time_ticks)
                +
00022a 91ed     +LD R30 , X +
00022b 91fd     +LD R31 , X +
00022c 916d     +LD R22 , X +
00022d 917d     +LD R23 , X +
                 	__GETD1P_INC
                +
00022e 5fef     +SUBI R30 , LOW ( - 1 )
00022f 4fff     +SBCI R31 , HIGH ( - 1 )
000230 4f6f     +SBCI R22 , BYTE3 ( - 1 )
000231 4f7f     +SBCI R23 , BYTE4 ( - 1 )
                 	__SUBD1N -1
                +
000232 937e     +ST - X , R23
000233 936e     +ST - X , R22
000234 93fe     +ST - X , R31
000235 93ee     +ST - X , R30
                 	__PUTDP1_DEC
                 ; 0003 0042 now = g_time_ticks;
000236 940e 0597 	CALL SUBOPT_0x9
                +
000238 83ec     +STD Y + 4 , R30
000239 83fd     +STD Y + 4 + 1 , R31
00023a 836e     +STD Y + 4 + 2 , R22
00023b 837f     +STD Y + 4 + 3 , R23
                 	__PUTD1S 4
                 ; 0003 0043 
                 ; 0003 0044 // Read ports once per ISR
                 ; 0003 0045 pinb = PINB;
00023c b103      	IN   R16,3
                 ; 0003 0046 pind = PIND;
00023d b139      	IN   R19,9
                 ; 0003 0047 
                 ; 0003 0048 // Process all 8 lanes
                 ; 0003 0049 for (i = 0; i < 8; i++)
00023e e010      	LDI  R17,LOW(0)
                 _0x60004:
00023f 3018      	CPI  R17,8
000240 f008      	BRLO PC+2
000241 c051      	RJMP _0x60005
                 ; 0003 004A {
                 ; 0003 004B unsigned char raw;
                 ; 0003 004C 
                 ; 0003 004D // Select raw port value for this lane
                 ; 0003 004E if (sensor_port_index[i] == 0)
000242 9721      	SBIW R28,1
                 ;	now -> Y+5
                 ;	raw -> Y+0
000243 2fe1      	MOV  R30,R17
000244 e0f0      	LDI  R31,0
000245 59e8      	SUBI R30,LOW(-_sensor_port_index_G003*2)
000246 4fff      	SBCI R31,HIGH(-_sensor_port_index_G003*2)
000247 91e4      	LPM  R30,Z
000248 30e0      	CPI  R30,0
000249 f411      	BRNE _0x60006
                 ; 0003 004F {
                 ; 0003 0050 // lane on PINB
                 ; 0003 0051 raw = pinb;
                +
00024a 8308     +STD Y + 0 , R16
                 	__PUTBSR 16,0
                 ; 0003 0052 }
                 ; 0003 0053 else
00024b c001      	RJMP _0x60007
                 _0x60006:
                 ; 0003 0054 {
                 ; 0003 0055 // lane on PIND
                 ; 0003 0056 raw = pind;
                +
00024c 8338     +STD Y + 0 , R19
                 	__PUTBSR 19,0
                 ; 0003 0057 }
                 _0x60007:
                 ; 0003 0058 
                 ; 0003 0059 // Active-low: sensor "on" when pin reads 0
                 ; 0003 005A is_low = ((raw & sensor_bit_mask[i]) == 0);
00024d 2fe1      	MOV  R30,R17
00024e e0f0      	LDI  R31,0
00024f 59e0      	SUBI R30,LOW(-_sensor_bit_mask_G003*2)
000250 4fff      	SBCI R31,HIGH(-_sensor_bit_mask_G003*2)
000251 91e4      	LPM  R30,Z
000252 81a8      	LD   R26,Y
000253 23ea      	AND  R30,R26
000254 e0a0      	LDI  R26,LOW(0)
                +
000255 17ea     +CP R30 , R26
000256 e0e1     +LDI R30 , 1
000257 f009     +BREQ PC + 2
000258 27ee     +CLR R30
                 	__EQB12
000259 2f2e      	MOV  R18,R30
                 ; 0003 005B 
                 ; 0003 005C // Debounce / glitch filter: consecutive low samples
                 ; 0003 005D if (is_low)
00025a 3020      	CPI  R18,0
00025b f069      	BREQ _0x60008
                 ; 0003 005E {
                 ; 0003 005F if (low_count[i] < 255)
00025c 940e 05a0 	CALL SUBOPT_0xA
00025e 81a0      	LD   R26,Z
00025f 3faf      	CPI  R26,LOW(0xFF)
000260 f438      	BRSH _0x60009
                 ; 0003 0060 low_count[i]++;
000261 2fa1      	MOV  R26,R17
000262 e0b0      	LDI  R27,0
000263 5aac      	SUBI R26,LOW(-_low_count_G003)
000264 4fba      	SBCI R27,HIGH(-_low_count_G003)
000265 91ec      	LD   R30,X
000266 5fef      	SUBI R30,-LOW(1)
000267 93ec      	ST   X,R30
                 ; 0003 0061 }
                 _0x60009:
                 ; 0003 0062 else
000268 c004      	RJMP _0x6000A
                 _0x60008:
                 ; 0003 0063 {
                 ; 0003 0064 low_count[i] = 0;
000269 940e 05a0 	CALL SUBOPT_0xA
00026b e0a0      	LDI  R26,LOW(0)
00026c 83a0      	STD  Z+0,R26
                 ; 0003 0065 }
                 _0x6000A:
                 ; 0003 0066 
                 ; 0003 0067 // Enough consecutive lows? (3 samples in a row)
                 ; 0003 0068 if (low_count[i] == 3)
00026d 940e 05a0 	CALL SUBOPT_0xA
00026f 81a0      	LD   R26,Z
000270 30a3      	CPI  R26,LOW(0x3)
000271 f4f1      	BRNE _0x6000B
                 ; 0003 0069 {
                 ; 0003 006A // Min time gap filter (ignore double triggers/glitches)
                 ; 0003 006B if (now - lane_last_time[i] >= MIN_GAP_TICKS)
000272 940e 05a5 	CALL SUBOPT_0xB
000274 940e 056a 	CALL SUBOPT_0x3
000276 940e 05ac 	CALL SUBOPT_0xC
                +
000278 1bae     +SUB R26 , R30
000279 0bbf     +SBC R27 , R31
00027a 0b86     +SBC R24 , R22
00027b 0b97     +SBC R25 , R23
                 	__SUBD21
                +
00027c 33a2     +CPI R26 , LOW ( 0x32 )
00027d e0e0     +LDI R30 , HIGH ( 0x32 )
00027e 07be     +CPC R27 , R30
00027f e0e0     +LDI R30 , BYTE3 ( 0x32 )
000280 078e     +CPC R24 , R30
000281 e0e0     +LDI R30 , BYTE4 ( 0x32 )
000282 079e     +CPC R25 , R30
                 	__CPD2N 0x32
000283 f060      	BRLO _0x6000C
                 ; 0003 006C {
                 ; 0003 006D lane_last_time[i]      = now;
000284 940e 05a5 	CALL SUBOPT_0xB
000286 940e 05b1 	CALL SUBOPT_0xD
                 ; 0003 006E lane_event_time[i]     = now;
000288 940e 0563 	CALL SUBOPT_0x2
00028a 940e 05b1 	CALL SUBOPT_0xD
                 ; 0003 006F lane_event_pending[i]  = 1;
00028c 940e 055e 	CALL SUBOPT_0x1
00028e e0a1      	LDI  R26,LOW(1)
00028f 83a0      	STD  Z+0,R26
                 ; 0003 0070 }
                 ; 0003 0071 }
                 _0x6000C:
                 ; 0003 0072 }
                 _0x6000B:
000290 9621      	ADIW R28,1
000291 5f1f      	SUBI R17,-1
000292 cfac      	RJMP _0x60004
                 _0x60005:
                 ; 0003 0073 }
000293 940e 05f9 	CALL __LOADLOCR4
000295 9628      	ADIW R28,8
000296 91e9      	LD   R30,Y+
000297 bfef      	OUT  SREG,R30
000298 91f9      	LD   R31,Y+
000299 91e9      	LD   R30,Y+
00029a 91b9      	LD   R27,Y+
00029b 91a9      	LD   R26,Y+
00029c 9199      	LD   R25,Y+
00029d 9189      	LD   R24,Y+
00029e 9179      	LD   R23,Y+
00029f 9169      	LD   R22,Y+
0002a0 9518      	RETI
                 ; .FEND
                 	#ifndef __SLEEP_DEFINED__
                 	#endif
                 ;void switches_init(void)
                 ; 0004 000E {
                 
                 	.CSEG
                 _switches_init:
                 ; .FSTART _switches_init
                 ; 0004 000F // PD5 input + pull-up
                 ; 0004 0010 DDRD  &= ~SWITCH1_MASK;
0002a1 9855      	CBI  0xA,5
                 ; 0004 0011 PORTD |=  SWITCH1_MASK;
0002a2 9a5d      	SBI  0xB,5
                 ; 0004 0012 }
0002a3 9508      	RET
                 ; .FEND
                 ;void switch1_poll(void)
                 ; 0004 0015 {
                 _switch1_poll:
                 ; .FSTART _switch1_poll
                 ; 0004 0016 unsigned char raw;
                 ; 0004 0017 static unsigned long last_sample_tick = 0;
                 ; 0004 0018 static unsigned char last_raw = 1;
                 
                 	.DSEG
                 
                 	.CSEG
                 ; 0004 0019 static unsigned char stable_state = 1;
                 
                 	.DSEG
                 
                 	.CSEG
                 ; 0004 001A static unsigned char stable_count = 0;
                 ; 0004 001B static unsigned long press_start_tick = 0;
                 ; 0004 001C 
                 ; 0004 001D unsigned long now = g_time_ticks;
                 ; 0004 001E 
                 ; 0004 001F // non-blocking time-based sampling
                 ; 0004 0020 if ((unsigned long)(now - last_sample_tick) < SWITCH_SAMPLE_TICKS)
0002a4 9724      	SBIW R28,4
0002a5 931a      	ST   -Y,R17
                 ;	raw -> R17
                 ;	now -> Y+1
0002a6 940e 0597 	CALL SUBOPT_0x9
                +
0002a8 83e9     +STD Y + 1 , R30
0002a9 83fa     +STD Y + 1 + 1 , R31
0002aa 836b     +STD Y + 1 + 2 , R22
0002ab 837c     +STD Y + 1 + 3 , R23
                 	__PUTD1S 1
0002ac 91a0 055c 	LDS  R26,_last_sample_tick_S0040001000
0002ae 91b0 055d 	LDS  R27,_last_sample_tick_S0040001000+1
0002b0 9180 055e 	LDS  R24,_last_sample_tick_S0040001000+2
0002b2 9190 055f 	LDS  R25,_last_sample_tick_S0040001000+3
0002b4 940e 05b9 	CALL SUBOPT_0xE
                +
0002b6 1bea     +SUB R30 , R26
0002b7 0bfb     +SBC R31 , R27
0002b8 0b68     +SBC R22 , R24
0002b9 0b79     +SBC R23 , R25
                 	__SUBD12
                +
0002ba 30ea     +CPI R30 , LOW ( 0xA )
0002bb e0a0     +LDI R26 , HIGH ( 0xA )
0002bc 07fa     +CPC R31 , R26
0002bd e0a0     +LDI R26 , BYTE3 ( 0xA )
0002be 076a     +CPC R22 , R26
0002bf e0a0     +LDI R26 , BYTE4 ( 0xA )
0002c0 077a     +CPC R23 , R26
                 	__CPD1N 0xA
0002c1 f418      	BRSH _0x80005
                 ; 0004 0021 return;
0002c2 8118      	LDD  R17,Y+0
0002c3 940c 0354 	JMP  _0x2060001
                 ; 0004 0022 
                 ; 0004 0023 last_sample_tick = now;
                 _0x80005:
0002c5 940e 05b9 	CALL SUBOPT_0xE
0002c7 93e0 055c 	STS  _last_sample_tick_S0040001000,R30
0002c9 93f0 055d 	STS  _last_sample_tick_S0040001000+1,R31
0002cb 9360 055e 	STS  _last_sample_tick_S0040001000+2,R22
0002cd 9370 055f 	STS  _last_sample_tick_S0040001000+3,R23
                 ; 0004 0024 
                 ; 0004 0025 raw = (PIND & SWITCH1_MASK) ? 1 : 0;
0002cf 9b4d      	SBIS 0x9,5
0002d0 c002      	RJMP _0x80006
0002d1 e0e1      	LDI  R30,LOW(1)
0002d2 c001      	RJMP _0x80007
                 _0x80006:
0002d3 e0e0      	LDI  R30,LOW(0)
                 _0x80007:
0002d4 2f1e      	MOV  R17,R30
                 ; 0004 0026 
                 ; 0004 0027 if (raw == last_raw)
0002d5 91e0 0560 	LDS  R30,_last_raw_S0040001000
0002d7 17e1      	CP   R30,R17
0002d8 f451      	BRNE _0x80009
                 ; 0004 0028 {
                 ; 0004 0029 if (stable_count < SWITCH_STABLE_COUNT)
0002d9 91a0 0562 	LDS  R26,_stable_count_S0040001000
0002db 30a3      	CPI  R26,LOW(0x3)
0002dc f428      	BRSH _0x8000A
                 ; 0004 002A stable_count++;
0002dd 91e0 0562 	LDS  R30,_stable_count_S0040001000
0002df 5fef      	SUBI R30,-LOW(1)
0002e0 93e0 0562 	STS  _stable_count_S0040001000,R30
                 ; 0004 002B }
                 _0x8000A:
                 ; 0004 002C else
0002e2 c005      	RJMP _0x8000B
                 _0x80009:
                 ; 0004 002D {
                 ; 0004 002E stable_count = 0;
0002e3 e0e0      	LDI  R30,LOW(0)
0002e4 93e0 0562 	STS  _stable_count_S0040001000,R30
                 ; 0004 002F last_raw = raw;
0002e6 9310 0560 	STS  _last_raw_S0040001000,R17
                 ; 0004 0030 }
                 _0x8000B:
                 ; 0004 0031 
                 ; 0004 0032 if (stable_count == SWITCH_STABLE_COUNT && raw != stable_state)
0002e8 91a0 0562 	LDS  R26,_stable_count_S0040001000
0002ea 30a3      	CPI  R26,LOW(0x3)
0002eb f421      	BRNE _0x8000D
0002ec 91e0 0561 	LDS  R30,_stable_state_S0040001000
0002ee 17e1      	CP   R30,R17
0002ef f409      	BRNE _0x8000E
                 _0x8000D:
0002f0 c041      	RJMP _0x8000C
                 _0x8000E:
                 ; 0004 0033 {
                 ; 0004 0034 stable_state = raw;
0002f1 9310 0561 	STS  _stable_state_S0040001000,R17
                 ; 0004 0035 
                 ; 0004 0036 // PRESS
                 ; 0004 0037 if (stable_state == 0)
0002f3 91e0 0561 	LDS  R30,_stable_state_S0040001000
0002f5 30e0      	CPI  R30,0
0002f6 f459      	BRNE _0x8000F
                 ; 0004 0038 {
                 ; 0004 0039 press_start_tick = now;
0002f7 940e 05b9 	CALL SUBOPT_0xE
0002f9 93e0 0563 	STS  _press_start_tick_S0040001000,R30
0002fb 93f0 0564 	STS  _press_start_tick_S0040001000+1,R31
0002fd 9360 0565 	STS  _press_start_tick_S0040001000+2,R22
0002ff 9370 0566 	STS  _press_start_tick_S0040001000+3,R23
                 ; 0004 003A }
                 ; 0004 003B // RELEASE
                 ; 0004 003C else
000301 c030      	RJMP _0x80010
                 _0x8000F:
                 ; 0004 003D {
                 ; 0004 003E unsigned long duration_ticks = now - press_start_tick;
                 ; 0004 003F unsigned long duration_ms = duration_ticks / 10;
                 ; 0004 0040 
                 ; 0004 0041 // @T,<start>,<duration>,
                 ; 0004 0042 printf("@T,%lu,%lu,\r\n", press_start_tick, duration_ms);
000302 9728      	SBIW R28,8
                 ;	now -> Y+9
                 ;	duration_ticks -> Y+4
                 ;	duration_ms -> Y+0
000303 91a0 0563 	LDS  R26,_press_start_tick_S0040001000
000305 91b0 0564 	LDS  R27,_press_start_tick_S0040001000+1
000307 9180 0565 	LDS  R24,_press_start_tick_S0040001000+2
000309 9190 0566 	LDS  R25,_press_start_tick_S0040001000+3
                +
00030b 85e9     +LDD R30 , Y + 9
00030c 85fa     +LDD R31 , Y + 9 + 1
00030d 856b     +LDD R22 , Y + 9 + 2
00030e 857c     +LDD R23 , Y + 9 + 3
                 	__GETD1S 9
                +
00030f 1bea     +SUB R30 , R26
000310 0bfb     +SBC R31 , R27
000311 0b68     +SBC R22 , R24
000312 0b79     +SBC R23 , R25
                 	__SUBD12
                +
000313 83ec     +STD Y + 4 , R30
000314 83fd     +STD Y + 4 + 1 , R31
000315 836e     +STD Y + 4 + 2 , R22
000316 837f     +STD Y + 4 + 3 , R23
                 	__PUTD1S 4
                +
000317 81ac     +LDD R26 , Y + 4
000318 81bd     +LDD R27 , Y + 4 + 1
000319 818e     +LDD R24 , Y + 4 + 2
00031a 819f     +LDD R25 , Y + 4 + 3
                 	__GETD2S 4
                +
00031b e0ea     +LDI R30 , LOW ( 0xA )
00031c e0f0     +LDI R31 , HIGH ( 0xA )
00031d e060     +LDI R22 , BYTE3 ( 0xA )
00031e e070     +LDI R23 , BYTE4 ( 0xA )
                 	__GETD1N 0xA
00031f 940e 0642 	CALL __DIVD21U
000321 940e 0571 	CALL SUBOPT_0x4
                +
000323 ecea     +LDI R30 , LOW ( 2 * _0x80000 + ( 0 ) )
000324 e0f0     +LDI R31 , HIGH ( 2 * _0x80000 + ( 0 ) )
                 	__POINTW1FN _0x80000,0
000325 93fa      	ST   -Y,R31
000326 93ea      	ST   -Y,R30
000327 91e0 0563 	LDS  R30,_press_start_tick_S0040001000
000329 91f0 0564 	LDS  R31,_press_start_tick_S0040001000+1
00032b 9160 0565 	LDS  R22,_press_start_tick_S0040001000+2
00032d 9170 0566 	LDS  R23,_press_start_tick_S0040001000+3
00032f 940e 0576 	CALL SUBOPT_0x5
                 ; 0004 0043 
                 ; 0004 0044 // optional classification
                 ; 0004 0045 if (duration_ticks >= LONG_PRESS_TICKS)
                 ; 0004 0046 {
                 ; 0004 0047 // printf("@T,LONG,%lu,\r\n", duration_ms);
                 ; 0004 0048 }
                 ; 0004 0049 }
000331 9628      	ADIW R28,8
                 _0x80010:
                 ; 0004 004A }
                 ; 0004 004B }
                 _0x8000C:
000332 8118      	LDD  R17,Y+0
000333 940c 0354 	JMP  _0x2060001
                 ; .FEND
                 ;void protocol_init(protocol_handler_fn handler)
                 ; 0005 001B {
                 
                 	.CSEG
                 _protocol_init:
                 ; .FSTART _protocol_init
                 ; 0005 001C g_handler = handler;
000335 931a      	ST   -Y,R17
000336 930a      	ST   -Y,R16
000337 018d      	MOVW R16,R26
                 ;	*handler -> R16,R17
                +
000338 9300 0567+STS _g_handler_G005 + ( 0 ) , R16
00033a 9310 0568+STS _g_handler_G005 + ( 0 ) + 1 , R17
                 	__PUTWMRN _g_handler_G005,0,16,17
                 ; 0005 001D idx = 0;
00033c e0e0      	LDI  R30,LOW(0)
00033d 93e0 05b9 	STS  _idx_G005,R30
                 ; 0005 001E }
00033f 9109      	LD   R16,Y+
000340 9119      	LD   R17,Y+
000341 9508      	RET
                 ; .FEND
                 ;static void handle_line(char* s)
                 ; 0005 0021 {
                 ; 0005 0022 char cmd;
                 ; 0005 0023 const char* args = 0;   // NULL = no args
                 ; 0005 0024 
                 ; 0005 0025 if (s[0] != '@' || s[1] == 0)
                 ;	*s -> R20,R21
                 ;	cmd -> R17
                 ;	*args -> R18,R19
                 ; 0005 0026 return;
                 ; 0005 0027 
                 ; 0005 0028 cmd = s[1];
                 ; 0005 0029 
                 ; 0005 002A if (s[2] == ',')
                 ; 0005 002B args = &s[3];       // points into RAM buffer
                 ; 0005 002C else if (s[2] != 0)
                 ; 0005 002D args = &s[2];
                 ; 0005 002E 
                 ; 0005 002F if (g_handler)
                 ; 0005 0030 g_handler(cmd, args);
                 ; 0005 0031 }
                 ;void protocol_feed(uint8_t b)
                 ; 0005 0035 {
                 ; 0005 0036 if (b == '\r') return;
                 ;	b -> R17
                 ; 0005 0037 
                 ; 0005 0038 if (b == '\n')
                 ; 0005 0039 {
                 ; 0005 003A linebuf[idx] = 0;
                 ; 0005 003B if (idx > 0)
                 ; 0005 003C handle_line(linebuf);
                 ; 0005 003D idx = 0;
                 ; 0005 003E return;
                 ; 0005 003F }
                 ; 0005 0040 
                 ; 0005 0041 if (idx < (LINE_MAX - 1))
                 ; 0005 0042 linebuf[idx++] = (char)b;
                 ; 0005 0043 else
                 ; 0005 0044 idx = 0; // overflow -> reset
                 ; 0005 0045 }
                 	#ifndef __SLEEP_DEFINED__
                 	#endif
                 ;static void q_push_line(const char* s)
                 ; 0006 0019 {
                 
                 	.CSEG
                 ; 0006 001A if (q_count >= SNIFF_Q_LINES) return; // drop if full (sniffer shouldn't break timing)
                 ;	*s -> R16,R17
                 ; 0006 001B strncpy(q[q_wr], s, SNIFF_LINE_MAX - 1);
                 ; 0006 001C q[q_wr][SNIFF_LINE_MAX - 1] = 0;
                 ; 0006 001D q_wr = (uint8_t)((q_wr + 1) % SNIFF_Q_LINES);
                 ; 0006 001E q_count++;
                 ; 0006 001F }
                 ;static uint8_t q_pop_line(char* out)
                 ; 0006 0022 {
                 ; 0006 0023 if (q_count == 0) return 0;
                 ;	*out -> R16,R17
                 ; 0006 0024 strcpy(out, q[q_rd]);
                 ; 0006 0025 q_rd = (uint8_t)((q_rd + 1) % SNIFF_Q_LINES);
                 ; 0006 0026 #asm("cli")
                 ; 0006 0027 q_count--;
                 ; 0006 0028 #asm("sei")
                 ; 0006 0029 return 1;
                 ; 0006 002A }
                 ;void sniffer_init(void)
                 ; 0006 002D {
                 ; 0006 002E idx = 0;
                 ; 0006 002F q_wr = q_rd = q_count = 0;
                 ; 0006 0030 }
                 ;void sniffer_feed(uint8_t b)
                 ; 0006 0034 {
                 ; 0006 0035 if (b == '\r') return; // ignore CR
                 ;	b -> R17
                 ; 0006 0036 
                 ; 0006 0037 if (b == '\n')
                 ; 0006 0038 {
                 ; 0006 0039 line[idx] = 0;
                 ; 0006 003A if (idx > 0) q_push_line(line);
                 ; 0006 003B idx = 0;
                 ; 0006 003C return;
                 ; 0006 003D }
                 ; 0006 003E 
                 ; 0006 003F if (idx < (SNIFF_LINE_MAX - 1))
                 ; 0006 0040 line[idx++] = (char)b;
                 ; 0006 0041 else
                 ; 0006 0042 idx = 0; // overflow: reset
                 ; 0006 0043 }
                 ;void sniffer_poll(void)
                 ; 0006 0047 {
                 ; 0006 0048 char tmp[SNIFF_LINE_MAX];
                 ; 0006 0049 if (q_pop_line(tmp))
                 ;	tmp -> Y+0
                 ; 0006 004A {
                 ; 0006 004B // Prefix so you can distinguish sniffer output from normal messages
                 ; 0006 004C printf("@D,%s\r\n", tmp);
                 ; 0006 004D }
                 ; 0006 004E }
                 	#ifndef __SLEEP_DEFINED__
                 	#endif
                 ;void track_power_on(void)
                 ; 0007 000B {
                 
                 	.CSEG
                 _track_power_on:
                 ; .FSTART _track_power_on
                 ; 0007 000C TRACK_POWER_DDR |= (1 << TRACK_POWER_PIN);   // ensure output
000342 9a22      	SBI  0x4,2
                 ; 0007 000D TRACK_POWER_PORT |= (1 << TRACK_POWER_PIN);  // relay ON
000343 9a2a      	SBI  0x5,2
                 ; 0007 000E }
000344 9508      	RET
                 ; .FEND
                 ;void track_power_off(void)
                 ; 0007 0011 {
                 _track_power_off:
                 ; .FSTART _track_power_off
                 ; 0007 0012 TRACK_POWER_DDR |= (1 << TRACK_POWER_PIN);
000345 9a22      	SBI  0x4,2
                 ; 0007 0013 TRACK_POWER_PORT &= ~(1 << TRACK_POWER_PIN); // relay OFF
000346 982a      	CBI  0x5,2
                 ; 0007 0014 }
000347 9508      	RET
                 ; .FEND
                 	#ifndef __SLEEP_DEFINED__
                 	#endif
                 
                 	.CSEG
                 _put_usart_G100:
                 ; .FSTART _put_usart_G100
000348 940e 05f2 	CALL __SAVELOCR4
00034a 018d      	MOVW R16,R26
00034b 813c      	LDD  R19,Y+4
00034c 2fa3      	MOV  R26,R19
00034d 940e 016f 	CALL _putchar
00034f 01d8      	MOVW R26,R16
000350 940e 058a 	CALL SUBOPT_0x7
                 _0x2060002:
000352 940e 05f9 	CALL __LOADLOCR4
                 _0x2060001:
000354 9625      	ADIW R28,5
000355 9508      	RET
                 ; .FEND
                 __print_G100:
                 ; .FSTART __print_G100
000356 93ba      	ST   -Y,R27
000357 93aa      	ST   -Y,R26
000358 972c      	SBIW R28,12
000359 940e 05f0 	CALL __SAVELOCR6
00035b e010      	LDI  R17,0
00035c 89aa      	LDD  R26,Y+18
00035d 89bb      	LDD  R27,Y+18+1
00035e e0e0      	LDI  R30,LOW(0)
00035f e0f0      	LDI  R31,HIGH(0)
000360 93ed      	ST   X+,R30
000361 93fc      	ST   X,R31
                 _0x2000016:
000362 8de8      	LDD  R30,Y+24
000363 8df9      	LDD  R31,Y+24+1
000364 9631      	ADIW R30,1
000365 8fe8      	STD  Y+24,R30
000366 8ff9      	STD  Y+24+1,R31
000367 9731      	SBIW R30,1
000368 91e4      	LPM  R30,Z
000369 2f2e      	MOV  R18,R30
00036a 30e0      	CPI  R30,0
00036b f409      	BRNE PC+2
00036c c1a4      	RJMP _0x2000018
00036d 2fe1      	MOV  R30,R17
00036e 30e0      	CPI  R30,0
00036f f439      	BRNE _0x200001C
000370 3225      	CPI  R18,37
000371 f411      	BRNE _0x200001D
000372 e011      	LDI  R17,LOW(1)
000373 c002      	RJMP _0x200001E
                 _0x200001D:
000374 940e 05be 	CALL SUBOPT_0xF
                 _0x200001E:
000376 c199      	RJMP _0x200001B
                 _0x200001C:
000377 30e1      	CPI  R30,LOW(0x1)
000378 f4c1      	BRNE _0x200001F
000379 3225      	CPI  R18,37
00037a f419      	BRNE _0x2000020
00037b 940e 05be 	CALL SUBOPT_0xF
00037d c191      	RJMP _0x20000E7
                 _0x2000020:
00037e e012      	LDI  R17,LOW(2)
00037f e0e0      	LDI  R30,LOW(0)
000380 8be9      	STD  Y+17,R30
000381 e000      	LDI  R16,LOW(0)
000382 322d      	CPI  R18,45
000383 f411      	BRNE _0x2000021
000384 e001      	LDI  R16,LOW(1)
000385 c18a      	RJMP _0x200001B
                 _0x2000021:
000386 322b      	CPI  R18,43
000387 f419      	BRNE _0x2000022
000388 e2eb      	LDI  R30,LOW(43)
000389 8be9      	STD  Y+17,R30
00038a c185      	RJMP _0x200001B
                 _0x2000022:
00038b 3220      	CPI  R18,32
00038c f419      	BRNE _0x2000023
00038d e2e0      	LDI  R30,LOW(32)
00038e 8be9      	STD  Y+17,R30
00038f c180      	RJMP _0x200001B
                 _0x2000023:
000390 c002      	RJMP _0x2000024
                 _0x200001F:
000391 30e2      	CPI  R30,LOW(0x2)
000392 f439      	BRNE _0x2000025
                 _0x2000024:
000393 e050      	LDI  R21,LOW(0)
000394 e013      	LDI  R17,LOW(3)
000395 3320      	CPI  R18,48
000396 f411      	BRNE _0x2000026
000397 6800      	ORI  R16,LOW(128)
000398 c177      	RJMP _0x200001B
                 _0x2000026:
000399 c002      	RJMP _0x2000027
                 _0x2000025:
00039a 30e3      	CPI  R30,LOW(0x3)
00039b f491      	BRNE _0x2000028
                 _0x2000027:
00039c 3320      	CPI  R18,48
00039d f010      	BRLO _0x200002A
00039e 332a      	CPI  R18,58
00039f f008      	BRLO _0x200002B
                 _0x200002A:
0003a0 c007      	RJMP _0x2000029
                 _0x200002B:
0003a1 e0aa      	LDI  R26,LOW(10)
0003a2 9f5a      	MUL  R21,R26
0003a3 2d50      	MOV  R21,R0
0003a4 2fe2      	MOV  R30,R18
0003a5 53e0      	SUBI R30,LOW(48)
0003a6 0f5e      	ADD  R21,R30
0003a7 c168      	RJMP _0x200001B
                 _0x2000029:
0003a8 e040      	LDI  R20,LOW(0)
0003a9 322e      	CPI  R18,46
0003aa f411      	BRNE _0x200002C
0003ab e014      	LDI  R17,LOW(4)
0003ac c163      	RJMP _0x200001B
                 _0x200002C:
0003ad c00e      	RJMP _0x200002D
                 _0x2000028:
0003ae 30e4      	CPI  R30,LOW(0x4)
0003af f491      	BRNE _0x200002F
0003b0 3320      	CPI  R18,48
0003b1 f010      	BRLO _0x2000031
0003b2 332a      	CPI  R18,58
0003b3 f008      	BRLO _0x2000032
                 _0x2000031:
0003b4 c007      	RJMP _0x2000030
                 _0x2000032:
0003b5 e0aa      	LDI  R26,LOW(10)
0003b6 9f4a      	MUL  R20,R26
0003b7 2d40      	MOV  R20,R0
0003b8 2fe2      	MOV  R30,R18
0003b9 53e0      	SUBI R30,LOW(48)
0003ba 0f4e      	ADD  R20,R30
0003bb c154      	RJMP _0x200001B
                 _0x2000030:
                 _0x200002D:
0003bc 362c      	CPI  R18,108
0003bd f419      	BRNE _0x2000033
0003be 6002      	ORI  R16,LOW(2)
0003bf e015      	LDI  R17,LOW(5)
0003c0 c14f      	RJMP _0x200001B
                 _0x2000033:
0003c1 c003      	RJMP _0x2000034
                 _0x200002F:
0003c2 30e5      	CPI  R30,LOW(0x5)
0003c3 f009      	BREQ PC+2
0003c4 c14b      	RJMP _0x200001B
                 _0x2000034:
0003c5 2fe2      	MOV  R30,R18
0003c6 36e3      	CPI  R30,LOW(0x63)
0003c7 f449      	BRNE _0x2000039
0003c8 940e 05c5 	CALL SUBOPT_0x10
0003ca 89ee      	LDD  R30,Y+22
0003cb 89ff      	LDD  R31,Y+22+1
0003cc 81a4      	LDD  R26,Z+4
0003cd 93aa      	ST   -Y,R26
0003ce 940e 05cb 	CALL SUBOPT_0x11
0003d0 c13e      	RJMP _0x200003A
                 _0x2000039:
0003d1 37e3      	CPI  R30,LOW(0x73)
0003d2 f441      	BRNE _0x200003C
0003d3 940e 05c5 	CALL SUBOPT_0x10
0003d5 940e 05d1 	CALL SUBOPT_0x12
0003d7 940e 0540 	CALL _strlen
0003d9 2f1e      	MOV  R17,R30
0003da c00a      	RJMP _0x200003D
                 _0x200003C:
0003db 37e0      	CPI  R30,LOW(0x70)
0003dc f4a1      	BRNE _0x200003F
0003dd 940e 05c5 	CALL SUBOPT_0x10
0003df 940e 05d1 	CALL SUBOPT_0x12
0003e1 940e 054c 	CALL _strlenf
0003e3 2f1e      	MOV  R17,R30
0003e4 6008      	ORI  R16,LOW(8)
                 _0x200003D:
0003e5 770f      	ANDI R16,LOW(127)
0003e6 3040      	CPI  R20,0
0003e7 f011      	BREQ _0x2000041
0003e8 1741      	CP   R20,R17
0003e9 f008      	BRLO _0x2000042
                 _0x2000041:
0003ea c001      	RJMP _0x2000040
                 _0x2000042:
0003eb 2f14      	MOV  R17,R20
                 _0x2000040:
0003ec e040      	LDI  R20,LOW(0)
0003ed e0e0      	LDI  R30,LOW(0)
0003ee 8be8      	STD  Y+16,R30
0003ef e030      	LDI  R19,LOW(0)
0003f0 c073      	RJMP _0x2000043
                 _0x200003F:
0003f1 36e4      	CPI  R30,LOW(0x64)
0003f2 f011      	BREQ _0x2000046
0003f3 36e9      	CPI  R30,LOW(0x69)
0003f4 f411      	BRNE _0x2000047
                 _0x2000046:
0003f5 6004      	ORI  R16,LOW(4)
0003f6 c002      	RJMP _0x2000048
                 _0x2000047:
0003f7 37e5      	CPI  R30,LOW(0x75)
0003f8 f4a1      	BRNE _0x2000049
                 _0x2000048:
0003f9 e0ea      	LDI  R30,LOW(10)
0003fa 8be8      	STD  Y+16,R30
0003fb ff01      	SBRS R16,1
0003fc c008      	RJMP _0x200004A
                +
0003fd e0e0     +LDI R30 , LOW ( 0x3B9ACA00 )
0003fe ecfa     +LDI R31 , HIGH ( 0x3B9ACA00 )
0003ff e96a     +LDI R22 , BYTE3 ( 0x3B9ACA00 )
000400 e37b     +LDI R23 , BYTE4 ( 0x3B9ACA00 )
                 	__GETD1N 0x3B9ACA00
000401 940e 05db 	CALL SUBOPT_0x13
000403 e01a      	LDI  R17,LOW(10)
000404 c022      	RJMP _0x200004B
                 _0x200004A:
                +
000405 e1e0     +LDI R30 , LOW ( 0x2710 )
000406 e2f7     +LDI R31 , HIGH ( 0x2710 )
000407 e060     +LDI R22 , BYTE3 ( 0x2710 )
000408 e070     +LDI R23 , BYTE4 ( 0x2710 )
                 	__GETD1N 0x2710
000409 940e 05db 	CALL SUBOPT_0x13
00040b e015      	LDI  R17,LOW(5)
00040c c01a      	RJMP _0x200004B
                 _0x2000049:
00040d 35e8      	CPI  R30,LOW(0x58)
00040e f411      	BRNE _0x200004D
00040f 6008      	ORI  R16,LOW(8)
000410 c003      	RJMP _0x200004E
                 _0x200004D:
000411 37e8      	CPI  R30,LOW(0x78)
000412 f009      	BREQ PC+2
000413 c0fb      	RJMP _0x200008C
                 _0x200004E:
000414 e1e0      	LDI  R30,LOW(16)
000415 8be8      	STD  Y+16,R30
000416 ff01      	SBRS R16,1
000417 c008      	RJMP _0x2000050
                +
000418 e0e0     +LDI R30 , LOW ( 0x10000000 )
000419 e0f0     +LDI R31 , HIGH ( 0x10000000 )
00041a e060     +LDI R22 , BYTE3 ( 0x10000000 )
00041b e170     +LDI R23 , BYTE4 ( 0x10000000 )
                 	__GETD1N 0x10000000
00041c 940e 05db 	CALL SUBOPT_0x13
00041e e018      	LDI  R17,LOW(8)
00041f c007      	RJMP _0x200004B
                 _0x2000050:
                +
000420 e0e0     +LDI R30 , LOW ( 0x1000 )
000421 e1f0     +LDI R31 , HIGH ( 0x1000 )
000422 e060     +LDI R22 , BYTE3 ( 0x1000 )
000423 e070     +LDI R23 , BYTE4 ( 0x1000 )
                 	__GETD1N 0x1000
000424 940e 05db 	CALL SUBOPT_0x13
000426 e014      	LDI  R17,LOW(4)
                 _0x200004B:
000427 3040      	CPI  R20,0
000428 f011      	BREQ _0x2000051
000429 770f      	ANDI R16,LOW(127)
00042a c001      	RJMP _0x2000052
                 _0x2000051:
00042b e041      	LDI  R20,LOW(1)
                 _0x2000052:
00042c ff01      	SBRS R16,1
00042d c008      	RJMP _0x2000053
00042e 940e 05c5 	CALL SUBOPT_0x10
000430 89ae      	LDD  R26,Y+22
000431 89bf      	LDD  R27,Y+22+1
000432 9614      	ADIW R26,4
000433 940e 066a 	CALL __GETD1P
000435 c011      	RJMP _0x20000E8
                 _0x2000053:
000436 ff02      	SBRS R16,2
000437 c009      	RJMP _0x2000055
000438 940e 05c5 	CALL SUBOPT_0x10
00043a 940e 05e0 	CALL SUBOPT_0x14
                +
00043c 2f6f     +MOV R22 , R31
00043d 0f66     +ADD R22 , R22
00043e 0b66     +SBC R22 , R22
00043f 2f76     +MOV R23 , R22
                 	__CWD1
000440 c006      	RJMP _0x20000E8
                 _0x2000055:
000441 940e 05c5 	CALL SUBOPT_0x10
000443 940e 05e0 	CALL SUBOPT_0x14
000445 2766      	CLR  R22
000446 2777      	CLR  R23
                 _0x20000E8:
                +
000447 87ec     +STD Y + 12 , R30
000448 87fd     +STD Y + 12 + 1 , R31
000449 876e     +STD Y + 12 + 2 , R22
00044a 877f     +STD Y + 12 + 3 , R23
                 	__PUTD1S 12
00044b ff02      	SBRS R16,2
00044c c016      	RJMP _0x2000057
00044d 85af      	LDD  R26,Y+15
00044e 23aa      	TST  R26
00044f f462      	BRPL _0x2000058
                +
000450 85ec     +LDD R30 , Y + 12
000451 85fd     +LDD R31 , Y + 12 + 1
000452 856e     +LDD R22 , Y + 12 + 2
000453 857f     +LDD R23 , Y + 12 + 3
                 	__GETD1S 12
000454 940e 05fe 	CALL __ANEGD1
                +
000456 87ec     +STD Y + 12 , R30
000457 87fd     +STD Y + 12 + 1 , R31
000458 876e     +STD Y + 12 + 2 , R22
000459 877f     +STD Y + 12 + 3 , R23
                 	__PUTD1S 12
00045a e2ed      	LDI  R30,LOW(45)
00045b 8be9      	STD  Y+17,R30
                 _0x2000058:
00045c 89e9      	LDD  R30,Y+17
00045d 30e0      	CPI  R30,0
00045e f019      	BREQ _0x2000059
00045f 5f1f      	SUBI R17,-LOW(1)
000460 5f4f      	SUBI R20,-LOW(1)
000461 c001      	RJMP _0x200005A
                 _0x2000059:
000462 7f0b      	ANDI R16,LOW(251)
                 _0x200005A:
                 _0x2000057:
000463 2f34      	MOV  R19,R20
                 _0x2000043:
000464 fd00      	SBRC R16,0
000465 c014      	RJMP _0x200005B
                 _0x200005C:
000466 1715      	CP   R17,R21
000467 f410      	BRSH _0x200005F
000468 1735      	CP   R19,R21
000469 f008      	BRLO _0x2000060
                 _0x200005F:
00046a c00f      	RJMP _0x200005E
                 _0x2000060:
00046b ff07      	SBRS R16,7
00046c c008      	RJMP _0x2000061
00046d ff02      	SBRS R16,2
00046e c004      	RJMP _0x2000062
00046f 7f0b      	ANDI R16,LOW(251)
000470 8929      	LDD  R18,Y+17
000471 5011      	SUBI R17,LOW(1)
000472 c001      	RJMP _0x2000063
                 _0x2000062:
000473 e320      	LDI  R18,LOW(48)
                 _0x2000063:
000474 c001      	RJMP _0x2000064
                 _0x2000061:
000475 e220      	LDI  R18,LOW(32)
                 _0x2000064:
000476 940e 05be 	CALL SUBOPT_0xF
000478 5051      	SUBI R21,LOW(1)
000479 cfec      	RJMP _0x200005C
                 _0x200005E:
                 _0x200005B:
                 _0x2000065:
00047a 1714      	CP   R17,R20
00047b f4b0      	BRSH _0x2000067
00047c 6100      	ORI  R16,LOW(16)
00047d ff02      	SBRS R16,2
00047e c00a      	RJMP _0x2000068
00047f 7f0b      	ANDI R16,LOW(251)
000480 89e9      	LDD  R30,Y+17
000481 93ea      	ST   -Y,R30
000482 940e 05cb 	CALL SUBOPT_0x11
000484 3050      	CPI  R21,0
000485 f009      	BREQ _0x2000069
000486 5051      	SUBI R21,LOW(1)
                 _0x2000069:
000487 5011      	SUBI R17,LOW(1)
000488 5041      	SUBI R20,LOW(1)
                 _0x2000068:
000489 e3e0      	LDI  R30,LOW(48)
00048a 93ea      	ST   -Y,R30
00048b 940e 05cb 	CALL SUBOPT_0x11
00048d 3050      	CPI  R21,0
00048e f009      	BREQ _0x200006A
00048f 5051      	SUBI R21,LOW(1)
                 _0x200006A:
000490 5041      	SUBI R20,LOW(1)
000491 cfe8      	RJMP _0x2000065
                 _0x2000067:
000492 2f31      	MOV  R19,R17
000493 89e8      	LDD  R30,Y+16
000494 30e0      	CPI  R30,0
000495 f4b9      	BRNE _0x200006B
                 _0x200006C:
000496 3030      	CPI  R19,0
000497 f0a1      	BREQ _0x200006E
000498 ff03      	SBRS R16,3
000499 c006      	RJMP _0x200006F
00049a 81ee      	LDD  R30,Y+6
00049b 81ff      	LDD  R31,Y+6+1
00049c 9125      	LPM  R18,Z+
00049d 83ee      	STD  Y+6,R30
00049e 83ff      	STD  Y+6+1,R31
00049f c005      	RJMP _0x2000070
                 _0x200006F:
0004a0 81ae      	LDD  R26,Y+6
0004a1 81bf      	LDD  R27,Y+6+1
0004a2 912d      	LD   R18,X+
0004a3 83ae      	STD  Y+6,R26
0004a4 83bf      	STD  Y+6+1,R27
                 _0x2000070:
0004a5 940e 05be 	CALL SUBOPT_0xF
0004a7 3050      	CPI  R21,0
0004a8 f009      	BREQ _0x2000071
0004a9 5051      	SUBI R21,LOW(1)
                 _0x2000071:
0004aa 5031      	SUBI R19,LOW(1)
0004ab cfea      	RJMP _0x200006C
                 _0x200006E:
0004ac c058      	RJMP _0x2000072
                 _0x200006B:
                 _0x2000074:
0004ad 940e 05e7 	CALL SUBOPT_0x15
0004af 940e 0642 	CALL __DIVD21U
0004b1 2f2e      	MOV  R18,R30
0004b2 302a      	CPI  R18,10
0004b3 f030      	BRLO _0x2000076
0004b4 ff03      	SBRS R16,3
0004b5 c002      	RJMP _0x2000077
0004b6 5c29      	SUBI R18,-LOW(55)
0004b7 c001      	RJMP _0x2000078
                 _0x2000077:
0004b8 5a29      	SUBI R18,-LOW(87)
                 _0x2000078:
0004b9 c001      	RJMP _0x2000079
                 _0x2000076:
0004ba 5d20      	SUBI R18,-LOW(48)
                 _0x2000079:
0004bb fd04      	SBRC R16,4
0004bc c025      	RJMP _0x200007B
0004bd 3321      	CPI  R18,49
0004be f460      	BRSH _0x200007D
                +
0004bf 85a8     +LDD R26 , Y + 8
0004c0 85b9     +LDD R27 , Y + 8 + 1
0004c1 858a     +LDD R24 , Y + 8 + 2
0004c2 859b     +LDD R25 , Y + 8 + 3
                 	__GETD2S 8
                +
0004c3 30a1     +CPI R26 , LOW ( 0x1 )
0004c4 e0e0     +LDI R30 , HIGH ( 0x1 )
0004c5 07be     +CPC R27 , R30
0004c6 e0e0     +LDI R30 , BYTE3 ( 0x1 )
0004c7 078e     +CPC R24 , R30
0004c8 e0e0     +LDI R30 , BYTE4 ( 0x1 )
0004c9 079e     +CPC R25 , R30
                 	__CPD2N 0x1
0004ca f409      	BRNE _0x200007C
                 _0x200007D:
0004cb c00b      	RJMP _0x200007F
                 _0x200007C:
0004cc 1743      	CP   R20,R19
0004cd f440      	BRSH _0x20000E9
0004ce 1753      	CP   R21,R19
0004cf f010      	BRLO _0x2000082
0004d0 ff00      	SBRS R16,0
0004d1 c001      	RJMP _0x2000083
                 _0x2000082:
0004d2 c014      	RJMP _0x2000081
                 _0x2000083:
0004d3 e220      	LDI  R18,LOW(32)
0004d4 ff07      	SBRS R16,7
0004d5 c00c      	RJMP _0x2000084
                 _0x20000E9:
0004d6 e320      	LDI  R18,LOW(48)
                 _0x200007F:
0004d7 6100      	ORI  R16,LOW(16)
0004d8 ff02      	SBRS R16,2
0004d9 c008      	RJMP _0x2000085
0004da 7f0b      	ANDI R16,LOW(251)
0004db 89e9      	LDD  R30,Y+17
0004dc 93ea      	ST   -Y,R30
0004dd 940e 05cb 	CALL SUBOPT_0x11
0004df 3050      	CPI  R21,0
0004e0 f009      	BREQ _0x2000086
0004e1 5051      	SUBI R21,LOW(1)
                 _0x2000086:
                 _0x2000085:
                 _0x2000084:
                 _0x200007B:
0004e2 940e 05be 	CALL SUBOPT_0xF
0004e4 3050      	CPI  R21,0
0004e5 f009      	BREQ _0x2000087
0004e6 5051      	SUBI R21,LOW(1)
                 _0x2000087:
                 _0x2000081:
0004e7 5031      	SUBI R19,LOW(1)
0004e8 940e 05e7 	CALL SUBOPT_0x15
0004ea 940e 0666 	CALL __MODD21U
                +
0004ec 87ec     +STD Y + 12 , R30
0004ed 87fd     +STD Y + 12 + 1 , R31
0004ee 876e     +STD Y + 12 + 2 , R22
0004ef 877f     +STD Y + 12 + 3 , R23
                 	__PUTD1S 12
0004f0 89e8      	LDD  R30,Y+16
                +
0004f1 85a8     +LDD R26 , Y + 8
0004f2 85b9     +LDD R27 , Y + 8 + 1
0004f3 858a     +LDD R24 , Y + 8 + 2
0004f4 859b     +LDD R25 , Y + 8 + 3
                 	__GETD2S 8
0004f5 27ff      	CLR  R31
0004f6 2766      	CLR  R22
0004f7 2777      	CLR  R23
0004f8 940e 0642 	CALL __DIVD21U
0004fa 940e 05db 	CALL SUBOPT_0x13
                +
0004fc 85e8     +LDD R30 , Y + 8
0004fd 85f9     +LDD R31 , Y + 8 + 1
0004fe 856a     +LDD R22 , Y + 8 + 2
0004ff 857b     +LDD R23 , Y + 8 + 3
                 	__GETD1S 8
                +
000500 9730     +SBIW R30 , 0
000501 4060     +SBCI R22 , 0
000502 4070     +SBCI R23 , 0
                 	__CPD10
000503 f009      	BREQ _0x2000075
000504 cfa8      	RJMP _0x2000074
                 _0x2000075:
                 _0x2000072:
000505 ff00      	SBRS R16,0
000506 c008      	RJMP _0x2000088
                 _0x2000089:
000507 3050      	CPI  R21,0
000508 f031      	BREQ _0x200008B
000509 5051      	SUBI R21,LOW(1)
00050a e2e0      	LDI  R30,LOW(32)
00050b 93ea      	ST   -Y,R30
00050c 940e 05cb 	CALL SUBOPT_0x11
00050e cff8      	RJMP _0x2000089
                 _0x200008B:
                 _0x2000088:
                 _0x200008C:
                 _0x200003A:
                 _0x20000E7:
00050f e010      	LDI  R17,LOW(0)
                 _0x200001B:
000510 ce51      	RJMP _0x2000016
                 _0x2000018:
000511 89aa      	LDD  R26,Y+18
000512 89bb      	LDD  R27,Y+18+1
000513 91ed      	LD   R30,X+
000514 91fd      	LD   R31,X+
000515 940e 05f7 	CALL __LOADLOCR6
000517 966a      	ADIW R28,26
000518 9508      	RET
                 ; .FEND
                 _printf:
                 ; .FSTART _printf
000519 92ff      	PUSH R15
00051a 2ef8      	MOV  R15,R24
00051b 9726      	SBIW R28,6
00051c 931a      	ST   -Y,R17
00051d 930a      	ST   -Y,R16
00051e 01de      	MOVW R26,R28
00051f 9614      	ADIW R26,4
                +
000520 2400     +CLR R0
000521 0daf     +ADD R26 , R15
000522 1db0     +ADC R27 , R0
                 	__ADDW2R15
000523 018d      	MOVW R16,R26
000524 e0e0      	LDI  R30,LOW(0)
000525 83ec      	STD  Y+4,R30
000526 83ed      	STD  Y+4+1,R30
000527 83ee      	STD  Y+6,R30
000528 83ef      	STD  Y+6+1,R30
000529 01de      	MOVW R26,R28
00052a 9618      	ADIW R26,8
                +
00052b 2400     +CLR R0
00052c 0daf     +ADD R26 , R15
00052d 1db0     +ADC R27 , R0
                 	__ADDW2R15
00052e 91ed      	LD   R30,X+
00052f 91fd      	LD   R31,X+
000530 93fa      	ST   -Y,R31
000531 93ea      	ST   -Y,R30
000532 931a      	ST   -Y,R17
000533 930a      	ST   -Y,R16
000534 e4e8      	LDI  R30,LOW(_put_usart_G100)
000535 e0f3      	LDI  R31,HIGH(_put_usart_G100)
000536 93fa      	ST   -Y,R31
000537 93ea      	ST   -Y,R30
000538 01de      	MOVW R26,R28
000539 9618      	ADIW R26,8
00053a de1b      	RCALL __print_G100
00053b 8119      	LDD  R17,Y+1
00053c 8108      	LDD  R16,Y+0
00053d 9628      	ADIW R28,8
00053e 90ff      	POP  R15
00053f 9508      	RET
                 ; .FEND
                 
                 	.CSEG
                 _strlen:
                 ; .FSTART _strlen
000540 93ba      	ST   -Y,R27
000541 93aa      	ST   -Y,R26
000542 91a9          ld   r26,y+
000543 91b9          ld   r27,y+
000544 27ee          clr  r30
000545 27ff          clr  r31
                 strlen0:
000546 916d          ld   r22,x+
000547 2366          tst  r22
000548 f011          breq strlen1
000549 9631          adiw r30,1
00054a cffb          rjmp strlen0
                 strlen1:
00054b 9508          ret
                 ; .FEND
                 _strlenf:
                 ; .FSTART _strlenf
00054c 93ba      	ST   -Y,R27
00054d 93aa      	ST   -Y,R26
00054e 27aa          clr  r26
00054f 27bb          clr  r27
000550 91e9          ld   r30,y+
000551 91f9          ld   r31,y+
                 strlenf0:
000552 9005      	lpm  r0,z+
000553 2000          tst  r0
000554 f011          breq strlenf1
000555 9611          adiw r26,1
000556 cffb          rjmp strlenf0
                 strlenf1:
000557 01fd          movw r30,r26
000558 9508          ret
                 ; .FEND
                 
                 	.CSEG
                 
                 	.DSEG
                 _g_time_ticks:
000300           	.BYTE 0x4
                 _lane_event_pending:
000304           	.BYTE 0x8
                 _lane_event_time:
00030c           	.BYTE 0x20
                 _rx_buffer0:
00032c           	.BYTE 0x100
                 _rx_wr_index0:
00042c           	.BYTE 0x1
                 _rx_rd_index0:
00042d           	.BYTE 0x1
                 _rx_counter0:
00042e           	.BYTE 0x2
                 _tx_buffer0:
000430           	.BYTE 0x100
                 _tx_wr_index0:
000530           	.BYTE 0x1
                 _tx_rd_index0:
000531           	.BYTE 0x1
                 _tx_counter0:
000532           	.BYTE 0x2
                 _lane_last_time:
000534           	.BYTE 0x20
                 _low_count_G003:
000554           	.BYTE 0x8
                 _last_sample_tick_S0040001000:
00055c           	.BYTE 0x4
                 _last_raw_S0040001000:
000560           	.BYTE 0x1
                 _stable_state_S0040001000:
000561           	.BYTE 0x1
                 _stable_count_S0040001000:
000562           	.BYTE 0x1
                 _press_start_tick_S0040001000:
000563           	.BYTE 0x4
                 _g_handler_G005:
000567           	.BYTE 0x2
                 _linebuf_G005:
000569           	.BYTE 0x50
                 _idx_G005:
0005b9           	.BYTE 0x1
                 _line_G006:
0005ba           	.BYTE 0x50
                 _idx_G006:
00060a           	.BYTE 0x1
                 _q_G006:
00060b           	.BYTE 0x140
                 _q_wr_G006:
00074b           	.BYTE 0x1
                 _q_rd_G006:
00074c           	.BYTE 0x1
                 _q_count_G006:
00074d           	.BYTE 0x1
                 
                 	.CSEG
                 ;OPTIMIZER ADDED SUBROUTINE, CALLED 5 TIMES, CODE SIZE REDUCTION:5 WORDS
                 SUBOPT_0x0:
000559 2766      	CLR  R22
00055a 2777      	CLR  R23
00055b 940e 0670 	CALL __PUTPARD1
00055d 9508      	RET
                 
                 ;OPTIMIZER ADDED SUBROUTINE, CALLED 3 TIMES, CODE SIZE REDUCTION:1 WORDS
                 SUBOPT_0x1:
00055e 2fe1      	MOV  R30,R17
00055f e0f0      	LDI  R31,0
000560 5fec      	SUBI R30,LOW(-_lane_event_pending)
000561 4ffc      	SBCI R31,HIGH(-_lane_event_pending)
000562 9508      	RET
                 
                 ;OPTIMIZER ADDED SUBROUTINE, CALLED 2 TIMES, CODE SIZE REDUCTION:1 WORDS
                 SUBOPT_0x2:
000563 2fe1      	MOV  R30,R17
000564 e0ac      	LDI  R26,LOW(_lane_event_time)
000565 e0b3      	LDI  R27,HIGH(_lane_event_time)
000566 e0f0      	LDI  R31,0
000567 940e 061d 	CALL __LSLW2
000569 9508      	RET
                 
                 ;OPTIMIZER ADDED SUBROUTINE, CALLED 2 TIMES, CODE SIZE REDUCTION:1 WORDS
                 SUBOPT_0x3:
00056a 0fae      	ADD  R26,R30
00056b 1fbf      	ADC  R27,R31
                +
00056c 91ed     +LD R30 , X +
00056d 91fd     +LD R31 , X +
00056e 916d     +LD R22 , X +
00056f 917d     +LD R23 , X +
                 	__GETD1P_INC
000570 9508      	RET
                 
                 ;OPTIMIZER ADDED SUBROUTINE, CALLED 3 TIMES, CODE SIZE REDUCTION:1 WORDS
                 SUBOPT_0x4:
                +
000571 83e8     +STD Y + 0 , R30
000572 83f9     +STD Y + 0 + 1 , R31
000573 836a     +STD Y + 0 + 2 , R22
000574 837b     +STD Y + 0 + 3 , R23
                 	__PUTD1S 0
000575 9508      	RET
                 
                 ;OPTIMIZER ADDED SUBROUTINE, CALLED 2 TIMES, CODE SIZE REDUCTION:7 WORDS
                 SUBOPT_0x5:
000576 940e 0670 	CALL __PUTPARD1
                +
000578 81ee     +LDD R30 , Y + 6
000579 81ff     +LDD R31 , Y + 6 + 1
00057a 8568     +LDD R22 , Y + 6 + 2
00057b 8579     +LDD R23 , Y + 6 + 3
                 	__GETD1S 6
00057c 940e 0670 	CALL __PUTPARD1
00057e e088      	LDI  R24,8
00057f 940e 0519 	CALL _printf
000581 962a      	ADIW R28,10
000582 9508      	RET
                 
                 ;OPTIMIZER ADDED SUBROUTINE, CALLED 2 TIMES, CODE SIZE REDUCTION:1 WORDS
                 SUBOPT_0x6:
000583 93aa      	ST   -Y,R26
000584 93ba      	ST   -Y,R27
000585 93ea      	ST   -Y,R30
000586 93fa      	ST   -Y,R31
000587 b7ef      	IN   R30,SREG
000588 93ea      	ST   -Y,R30
000589 9508      	RET
                 
                 ;OPTIMIZER ADDED SUBROUTINE, CALLED 3 TIMES, CODE SIZE REDUCTION:3 WORDS
                 SUBOPT_0x7:
00058a 91ed      	LD   R30,X+
00058b 91fd      	LD   R31,X+
00058c 9631      	ADIW R30,1
00058d 93fe      	ST   -X,R31
00058e 93ee      	ST   -X,R30
00058f 9508      	RET
                 
                 ;OPTIMIZER ADDED SUBROUTINE, CALLED 2 TIMES, CODE SIZE REDUCTION:1 WORDS
                 SUBOPT_0x8:
000590 efe9      	LDI  R30,LOW(249)
000591 93e0 0085 	STS  133,R30
000593 ece0      	LDI  R30,LOW(192)
000594 93e0 0084 	STS  132,R30
000596 9508      	RET
                 
                 ;OPTIMIZER ADDED SUBROUTINE, CALLED 2 TIMES, CODE SIZE REDUCTION:3 WORDS
                 SUBOPT_0x9:
000597 91e0 0300 	LDS  R30,_g_time_ticks
000599 91f0 0301 	LDS  R31,_g_time_ticks+1
00059b 9160 0302 	LDS  R22,_g_time_ticks+2
00059d 9170 0303 	LDS  R23,_g_time_ticks+3
00059f 9508      	RET
                 
                 ;OPTIMIZER ADDED SUBROUTINE, CALLED 3 TIMES, CODE SIZE REDUCTION:1 WORDS
                 SUBOPT_0xA:
0005a0 2fe1      	MOV  R30,R17
0005a1 e0f0      	LDI  R31,0
0005a2 5aec      	SUBI R30,LOW(-_low_count_G003)
0005a3 4ffa      	SBCI R31,HIGH(-_low_count_G003)
0005a4 9508      	RET
                 
                 ;OPTIMIZER ADDED SUBROUTINE, CALLED 2 TIMES, CODE SIZE REDUCTION:1 WORDS
                 SUBOPT_0xB:
0005a5 2fe1      	MOV  R30,R17
0005a6 e3a4      	LDI  R26,LOW(_lane_last_time)
0005a7 e0b5      	LDI  R27,HIGH(_lane_last_time)
0005a8 e0f0      	LDI  R31,0
0005a9 940e 061d 	CALL __LSLW2
0005ab 9508      	RET
                 
                 ;OPTIMIZER ADDED SUBROUTINE, CALLED 3 TIMES, CODE SIZE REDUCTION:1 WORDS
                 SUBOPT_0xC:
                +
0005ac 81ad     +LDD R26 , Y + 5
0005ad 81be     +LDD R27 , Y + 5 + 1
0005ae 818f     +LDD R24 , Y + 5 + 2
0005af 8598     +LDD R25 , Y + 5 + 3
                 	__GETD2S 5
0005b0 9508      	RET
                 
                 ;OPTIMIZER ADDED SUBROUTINE, CALLED 2 TIMES, CODE SIZE REDUCTION:3 WORDS
                 SUBOPT_0xD:
0005b1 0fea      	ADD  R30,R26
0005b2 1ffb      	ADC  R31,R27
0005b3 dff8      	RCALL SUBOPT_0xC
                +
0005b4 83a0     +STD Z + 0 , R26
0005b5 83b1     +STD Z + 0 + 1 , R27
0005b6 8382     +STD Z + 0 + 2 , R24
0005b7 8393     +STD Z + 0 + 3 , R25
                 	__PUTDZ2 0
0005b8 9508      	RET
                 
                 ;OPTIMIZER ADDED SUBROUTINE, CALLED 3 TIMES, CODE SIZE REDUCTION:1 WORDS
                 SUBOPT_0xE:
                +
0005b9 81e9     +LDD R30 , Y + 1
0005ba 81fa     +LDD R31 , Y + 1 + 1
0005bb 816b     +LDD R22 , Y + 1 + 2
0005bc 817c     +LDD R23 , Y + 1 + 3
                 	__GETD1S 1
0005bd 9508      	RET
                 
                 ;OPTIMIZER ADDED SUBROUTINE, CALLED 5 TIMES, CODE SIZE REDUCTION:13 WORDS
                 SUBOPT_0xF:
0005be 932a      	ST   -Y,R18
0005bf 89ab      	LDD  R26,Y+19
0005c0 89bc      	LDD  R27,Y+19+1
0005c1 89ed      	LDD  R30,Y+21
0005c2 89fe      	LDD  R31,Y+21+1
0005c3 9509      	ICALL
0005c4 9508      	RET
                 
                 ;OPTIMIZER ADDED SUBROUTINE, CALLED 6 TIMES, CODE SIZE REDUCTION:12 WORDS
                 SUBOPT_0x10:
0005c5 89ee      	LDD  R30,Y+22
0005c6 89ff      	LDD  R31,Y+22+1
0005c7 9734      	SBIW R30,4
0005c8 8bee      	STD  Y+22,R30
0005c9 8bff      	STD  Y+22+1,R31
0005ca 9508      	RET
                 
                 ;OPTIMIZER ADDED SUBROUTINE, CALLED 5 TIMES, CODE SIZE REDUCTION:9 WORDS
                 SUBOPT_0x11:
0005cb 89ab      	LDD  R26,Y+19
0005cc 89bc      	LDD  R27,Y+19+1
0005cd 89ed      	LDD  R30,Y+21
0005ce 89fe      	LDD  R31,Y+21+1
0005cf 9509      	ICALL
0005d0 9508      	RET
                 
                 ;OPTIMIZER ADDED SUBROUTINE, CALLED 2 TIMES, CODE SIZE REDUCTION:4 WORDS
                 SUBOPT_0x12:
0005d1 89ae      	LDD  R26,Y+22
0005d2 89bf      	LDD  R27,Y+22+1
0005d3 9614      	ADIW R26,4
0005d4 91ed      	LD   R30,X+
0005d5 91fd      	LD   R31,X+
0005d6 83ee      	STD  Y+6,R30
0005d7 83ff      	STD  Y+6+1,R31
0005d8 81ae      	LDD  R26,Y+6
0005d9 81bf      	LDD  R27,Y+6+1
0005da 9508      	RET
                 
                 ;OPTIMIZER ADDED SUBROUTINE, CALLED 5 TIMES, CODE SIZE REDUCTION:5 WORDS
                 SUBOPT_0x13:
                +
0005db 87e8     +STD Y + 8 , R30
0005dc 87f9     +STD Y + 8 + 1 , R31
0005dd 876a     +STD Y + 8 + 2 , R22
0005de 877b     +STD Y + 8 + 3 , R23
                 	__PUTD1S 8
0005df 9508      	RET
                 
                 ;OPTIMIZER ADDED SUBROUTINE, CALLED 2 TIMES, CODE SIZE REDUCTION:1 WORDS
                 SUBOPT_0x14:
0005e0 89ae      	LDD  R26,Y+22
0005e1 89bf      	LDD  R27,Y+22+1
0005e2 9614      	ADIW R26,4
                +
0005e3 91ed     +LD R30 , X +
0005e4 91fc     +LD R31 , X
0005e5 9711     +SBIW R26 , 1
                 	__GETW1P
0005e6 9508      	RET
                 
                 ;OPTIMIZER ADDED SUBROUTINE, CALLED 2 TIMES, CODE SIZE REDUCTION:3 WORDS
                 SUBOPT_0x15:
                +
0005e7 85e8     +LDD R30 , Y + 8
0005e8 85f9     +LDD R31 , Y + 8 + 1
0005e9 856a     +LDD R22 , Y + 8 + 2
0005ea 857b     +LDD R23 , Y + 8 + 3
                 	__GETD1S 8
                +
0005eb 85ac     +LDD R26 , Y + 12
0005ec 85bd     +LDD R27 , Y + 12 + 1
0005ed 858e     +LDD R24 , Y + 12 + 2
0005ee 859f     +LDD R25 , Y + 12 + 3
                 	__GETD2S 12
0005ef 9508      	RET
                 
                 ;RUNTIME LIBRARY
                 
                 	.CSEG
                 __SAVELOCR6:
0005f0 935a      	ST   -Y,R21
                 __SAVELOCR5:
0005f1 934a      	ST   -Y,R20
                 __SAVELOCR4:
0005f2 933a      	ST   -Y,R19
                 __SAVELOCR3:
0005f3 932a      	ST   -Y,R18
                 __SAVELOCR2:
0005f4 931a      	ST   -Y,R17
0005f5 930a      	ST   -Y,R16
0005f6 9508      	RET
                 
                 __LOADLOCR6:
0005f7 815d      	LDD  R21,Y+5
                 __LOADLOCR5:
0005f8 814c      	LDD  R20,Y+4
                 __LOADLOCR4:
0005f9 813b      	LDD  R19,Y+3
                 __LOADLOCR3:
0005fa 812a      	LDD  R18,Y+2
                 __LOADLOCR2:
0005fb 8119      	LDD  R17,Y+1
0005fc 8108      	LD   R16,Y
0005fd 9508      	RET
                 
                 __ANEGD1:
0005fe 95f0      	COM  R31
0005ff 9560      	COM  R22
000600 9570      	COM  R23
000601 95e1      	NEG  R30
000602 4fff      	SBCI R31,-1
000603 4f6f      	SBCI R22,-1
000604 4f7f      	SBCI R23,-1
000605 9508      	RET
                 
                 __LSRD12:
000606 23ee      	TST  R30
000607 2e0e      	MOV  R0,R30
000608 e0e8      	LDI  R30,8
000609 2e1e      	MOV  R1,R30
00060a 01fd      	MOVW R30,R26
00060b 01bc      	MOVW R22,R24
00060c f079      	BREQ __LSRD12R
                 __LSRD12S8:
00060d 1401      	CP   R0,R1
00060e f038      	BRLO __LSRD12L
00060f 2fef      	MOV  R30,R31
000610 2ff6      	MOV  R31,R22
000611 2f67      	MOV  R22,R23
000612 e070      	LDI  R23,0
000613 1801      	SUB  R0,R1
000614 f7c1      	BRNE __LSRD12S8
000615 9508      	RET
                 __LSRD12L:
000616 9576      	LSR  R23
000617 9567      	ROR  R22
000618 95f7      	ROR  R31
000619 95e7      	ROR  R30
00061a 940a      	DEC  R0
00061b f7d1      	BRNE __LSRD12L
                 __LSRD12R:
00061c 9508      	RET
                 
                 __LSLW2:
00061d 0fee      	LSL  R30
00061e 1fff      	ROL  R31
00061f 0fee      	LSL  R30
000620 1fff      	ROL  R31
000621 9508      	RET
                 
                 __MULD12U:
000622 9f7a      	MUL  R23,R26
000623 2d70      	MOV  R23,R0
000624 9f6b      	MUL  R22,R27
000625 0d70      	ADD  R23,R0
000626 9ff8      	MUL  R31,R24
000627 0d70      	ADD  R23,R0
000628 9fe9      	MUL  R30,R25
000629 0d70      	ADD  R23,R0
00062a 9f6a      	MUL  R22,R26
00062b 2d60      	MOV  R22,R0
00062c 0d71      	ADD  R23,R1
00062d 9ffb      	MUL  R31,R27
00062e 0d60      	ADD  R22,R0
00062f 1d71      	ADC  R23,R1
000630 9fe8      	MUL  R30,R24
000631 0d60      	ADD  R22,R0
000632 1d71      	ADC  R23,R1
000633 2788      	CLR  R24
000634 9ffa      	MUL  R31,R26
000635 2df0      	MOV  R31,R0
000636 0d61      	ADD  R22,R1
000637 1f78      	ADC  R23,R24
000638 9feb      	MUL  R30,R27
000639 0df0      	ADD  R31,R0
00063a 1d61      	ADC  R22,R1
00063b 1f78      	ADC  R23,R24
00063c 9fea      	MUL  R30,R26
00063d 2de0      	MOV  R30,R0
00063e 0df1      	ADD  R31,R1
00063f 1f68      	ADC  R22,R24
000640 1f78      	ADC  R23,R24
000641 9508      	RET
                 
                 __DIVD21U:
000642 933f      	PUSH R19
000643 934f      	PUSH R20
000644 935f      	PUSH R21
000645 2400      	CLR  R0
000646 2411      	CLR  R1
000647 01a0      	MOVW R20,R0
000648 e230      	LDI  R19,32
                 __DIVD21U1:
000649 0faa      	LSL  R26
00064a 1fbb      	ROL  R27
00064b 1f88      	ROL  R24
00064c 1f99      	ROL  R25
00064d 1c00      	ROL  R0
00064e 1c11      	ROL  R1
00064f 1f44      	ROL  R20
000650 1f55      	ROL  R21
000651 1a0e      	SUB  R0,R30
000652 0a1f      	SBC  R1,R31
000653 0b46      	SBC  R20,R22
000654 0b57      	SBC  R21,R23
000655 f428      	BRCC __DIVD21U2
000656 0e0e      	ADD  R0,R30
000657 1e1f      	ADC  R1,R31
000658 1f46      	ADC  R20,R22
000659 1f57      	ADC  R21,R23
00065a c001      	RJMP __DIVD21U3
                 __DIVD21U2:
00065b 60a1      	SBR  R26,1
                 __DIVD21U3:
00065c 953a      	DEC  R19
00065d f759      	BRNE __DIVD21U1
00065e 01fd      	MOVW R30,R26
00065f 01bc      	MOVW R22,R24
000660 01d0      	MOVW R26,R0
000661 01ca      	MOVW R24,R20
000662 915f      	POP  R21
000663 914f      	POP  R20
000664 913f      	POP  R19
000665 9508      	RET
                 
                 __MODD21U:
000666 dfdb      	RCALL __DIVD21U
000667 01fd      	MOVW R30,R26
000668 01bc      	MOVW R22,R24
000669 9508      	RET
                 
                 __GETD1P:
00066a 91ed      	LD   R30,X+
00066b 91fd      	LD   R31,X+
00066c 916d      	LD   R22,X+
00066d 917c      	LD   R23,X
00066e 9713      	SBIW R26,3
00066f 9508      	RET
                 
                 __PUTPARD1:
000670 937a      	ST   -Y,R23
000671 936a      	ST   -Y,R22
000672 93fa      	ST   -Y,R31
000673 93ea      	ST   -Y,R30
000674 9508      	RET
                 
                 __PUTPARD2:
000675 939a      	ST   -Y,R25
000676 938a      	ST   -Y,R24
000677 93ba      	ST   -Y,R27
000678 93aa      	ST   -Y,R26
000679 9508      	RET
                 
                 _delay_ms:
00067a 9610      	adiw r26,0
00067b f039      	breq __delay_ms1
                 __delay_ms0:
00067c 95a8      	wdr
                +
00067d ea80     +LDI R24 , LOW ( 0xFA0 )
00067e e09f     +LDI R25 , HIGH ( 0xFA0 )
                +__DELAY_USW_LOOP :
00067f 9701     +SBIW R24 , 1
000680 f7f1     +BRNE __DELAY_USW_LOOP
                 	__DELAY_USW 0xFA0
000681 9711      	sbiw r26,1
000682 f7c9      	brne __delay_ms0
                 __delay_ms1:
000683 9508      	ret
                 
                 ;END OF CODE MARKER
                 __END_OF_CODE:


RESOURCE USE INFORMATION
------------------------

Notice:
The register and instruction counts are symbol table hit counts,
and hence implicitly used resources are not counted, eg, the
'lpm' instruction without operands implicitly uses r0 and z,
none of which are counted.

x,y,z are separate entities in the symbol table and are
counted separately from r26..r31 here.

.dseg memory usage only counts static data declared with .byte

ATmega328 register use summary:
r0 :  34 r1 :  14 r2 :   0 r3 :   0 r4 :   0 r5 :   0 r6 :   0 r7 :   0 
r8 :   0 r9 :   0 r10:   0 r11:   0 r12:   0 r13:   0 r14:   0 r15:   5 
r16:  54 r17:  66 r18:  34 r19:  21 r20:  25 r21:  27 r22:  70 r23:  61 
r24:  44 r25:  25 r26: 130 r27:  61 r28:  22 r29:   1 r30: 340 r31: 120 
x  :  42 y  : 242 z  :  26 
Registers used: 22 out of 35 (62.9%)

ATmega328 instruction use summary:
.lds  :   0 .lds.l:   0 .sts  :   0 .sts.l:   0 adc   :  14 add   :  17 
adiw  :  21 and   :   1 andi  :   8 asr   :   0 bclr  :   0 bld   :   0 
brbc  :   0 brbs  :   0 brcc  :   1 brcs  :   0 break :   0 breq  :  27 
brge  :   0 brhc  :   0 brhs  :   0 brid  :   0 brie  :   0 brlo  :  11 
brlt  :   0 brmi  :   0 brne  :  42 brpl  :   1 brsh  :   9 brtc  :   0 
brts  :   0 brvc  :   0 brvs  :   0 bset  :   0 bst   :   0 call  : 100 
cbi   :   3 cbr   :   0 clc   :   0 clh   :   0 cli   :   2 cln   :   0 
clr   :  22 cls   :   0 clt   :   0 clv   :   0 clz   :   0 com   :   3 
cp    :  10 cpc   :  13 cpi   :  59 cpse  :   0 dec   :   3 des   :   0 
eor   :   0 fmul  :   0 fmuls :   0 fmulsu:   0 icall :   2 ijmp  :   0 
in    :   4 inc   :   0 jmp   :  30 ld    :  58 ldd   : 101 ldi   : 180 
lds   :  34 lpm   :  15 lsl   :   3 lsr   :   1 mov   :  42 movw  :  22 
mul   :  12 muls  :   0 mulsu :   0 neg   :   1 nop   :   0 or    :   1 
ori   :   7 out   :  22 pop   :   4 push  :   4 rcall :   6 ret   :  48 
reti  :   2 rjmp  :  87 rol   :   9 ror   :   3 sbc   :  13 sbci  :  19 
sbi   :   6 sbic  :   0 sbis  :   1 sbiw  :  22 sbr   :   1 sbrc  :   2 
sbrs  :  14 sec   :   0 seh   :   0 sei   :   2 sen   :   0 ser   :   0 
ses   :   0 set   :   0 sev   :   0 sez   :   0 sleep :   0 spm   :   0 
st    :  77 std   :  62 sts   :  52 sub   :   5 subi  :  42 swap  :   0 
tst   :   4 wdr   :   1 
Instructions used: 61 out of 116 (52.6%)

ATmega328 memory use summary [bytes]:
Segment   Begin    End      Code   Data   Used    Size   Use%
---------------------------------------------------------------
[.cseg] 0x000000 0x000d08   3202    134   3336   32768  10.2%
[.dseg] 0x000100 0x00074e      0   1102   1102    2048  53.8%
[.eseg] 0x000000 0x000000      0      0      0    1024   0.0%

Assembly complete, 0 errors, 2 warnings
